(lp0
(lp1
F0.288805
aF-0.0262932
aF0.531569
aF-0.0234241
aF0.863565
aF-0.0186987
aF0.960569
aF-0.0164827
aF0.847375
aF-0.0184633
aF0.781157
aF-0.0180517
aF0.720146
aF-0.0177708
aF0.664065
aF-0.0181331
aF0.509414
aF-0.0181971
aF0.468089
aF-0.0178396
aF0.429154
aF-0.0180593
aF0.392233
aF-0.0180043
aF0.35791
aF-0.0177273
aF0.325492
aF-0.0180125
aF0.293843
aF-0.0179631
aF0.263362
aF-0.0178341
aF0.235927
aF-0.018148
aF0.213837
aF-0.0179346
aF0.21436
aF-0.0182145
aF0.228719
aF-0.0177682
aa(lp2
F0.863565
aF-0.0186987
aF0.960569
aF-0.0164827
aF0.847375
aF-0.0184633
aF0.781157
aF-0.0180517
aF0.720146
aF-0.0177708
aF0.664065
aF-0.0181331
aF0.509414
aF-0.0181971
aF0.468089
aF-0.0178396
aF0.429154
aF-0.0180593
aF0.392233
aF-0.0180043
aF0.35791
aF-0.0177273
aF0.325492
aF-0.0180125
aF0.293843
aF-0.0179631
aF0.263362
aF-0.0178341
aF0.235927
aF-0.018148
aF0.213837
aF-0.0179346
aF0.21436
aF-0.0182145
aF0.228719
aF-0.0177682
aF0.24607
aF-0.017801
aF0.158688
aF-0.0178548
aa(lp3
F0.847375
aF-0.0184633
aF0.781157
aF-0.0180517
aF0.720146
aF-0.0177708
aF0.664065
aF-0.0181331
aF0.509414
aF-0.0181971
aF0.468089
aF-0.0178396
aF0.429154
aF-0.0180593
aF0.392233
aF-0.0180043
aF0.35791
aF-0.0177273
aF0.325492
aF-0.0180125
aF0.293843
aF-0.0179631
aF0.263362
aF-0.0178341
aF0.235927
aF-0.018148
aF0.213837
aF-0.0179346
aF0.21436
aF-0.0182145
aF0.228719
aF-0.0177682
aF0.24607
aF-0.017801
aF0.158688
aF-0.0178548
aF0.190712
aF-0.0180684
aF0.236939
aF-0.0181992
aa(lp4
F0.720146
aF-0.0177708
aF0.664065
aF-0.0181331
aF0.509414
aF-0.0181971
aF0.468089
aF-0.0178396
aF0.429154
aF-0.0180593
aF0.392233
aF-0.0180043
aF0.35791
aF-0.0177273
aF0.325492
aF-0.0180125
aF0.293843
aF-0.0179631
aF0.263362
aF-0.0178341
aF0.235927
aF-0.018148
aF0.213837
aF-0.0179346
aF0.21436
aF-0.0182145
aF0.228719
aF-0.0177682
aF0.24607
aF-0.017801
aF0.158688
aF-0.0178548
aF0.190712
aF-0.0180684
aF0.236939
aF-0.0181992
aF0.714348
aF-0.0179844
aF0.433767
aF-0.0180013
aa.