(lp0
(lp1
F1.05582
aF-0.0178154
aF1.00792
aF-0.0179484
aF0.964997
aF-0.0179112
aF0.923843
aF-0.0179593
aF0.883066
aF-0.0177963
aF0.84428
aF-0.0181669
aF0.806414
aF-0.0180684
aF0.770826
aF-0.0176634
aF0.774071
aF-0.0183593
aF0.769559
aF-0.0174848
aF0.751469
aF-0.016925
aF0.650933
aF-0.0175417
aF0.590582
aF-0.0183507
aF0.524015
aF-0.0185804
aF0.479864
aF-0.0187175
aF1.44212
aF-0.0197569
aF1.26781
aF-0.01987
aF1.13327
aF-0.0186997
aF1.03091
aF-0.0178668
aF0.964004
aF-0.0202081
aa.