(lp0
(lp1
F1.66536
aF0.0518982
aF1.58169
aF0.0144262
aF1.48616
aF-0.00928003
aF1.4303
aF-0.0508896
aF1.37115
aF-0.0541399
aF1.32328
aF-0.0554861
aF1.42968
aF-0.0520568
aF1.39923
aF-0.0517188
aF1.25296
aF-0.0487811
aF1.09486
aF-0.0449118
aF0.876274
aF-0.0402808
aF0.673997
aF-0.0415683
aF0.437515
aF-0.0348395
aF0.260234
aF-0.0297612
aF0.288805
aF-0.0262932
aF0.531569
aF-0.0234241
aF0.863565
aF-0.0186987
aF0.960569
aF-0.0164827
aF0.847375
aF-0.0184633
aF0.781157
aF-0.0180517
aa(lp2
F1.48616
aF-0.00928003
aF1.4303
aF-0.0508896
aF1.37115
aF-0.0541399
aF1.32328
aF-0.0554861
aF1.42968
aF-0.0520568
aF1.39923
aF-0.0517188
aF1.25296
aF-0.0487811
aF1.09486
aF-0.0449118
aF0.876274
aF-0.0402808
aF0.673997
aF-0.0415683
aF0.437515
aF-0.0348395
aF0.260234
aF-0.0297612
aF0.288805
aF-0.0262932
aF0.531569
aF-0.0234241
aF0.863565
aF-0.0186987
aF0.960569
aF-0.0164827
aF0.847375
aF-0.0184633
aF0.781157
aF-0.0180517
aF0.720146
aF-0.0177708
aF0.664065
aF-0.0181331
aa(lp3
F1.37115
aF-0.0541399
aF1.32328
aF-0.0554861
aF1.42968
aF-0.0520568
aF1.39923
aF-0.0517188
aF1.25296
aF-0.0487811
aF1.09486
aF-0.0449118
aF0.876274
aF-0.0402808
aF0.673997
aF-0.0415683
aF0.437515
aF-0.0348395
aF0.260234
aF-0.0297612
aF0.288805
aF-0.0262932
aF0.531569
aF-0.0234241
aF0.863565
aF-0.0186987
aF0.960569
aF-0.0164827
aF0.847375
aF-0.0184633
aF0.781157
aF-0.0180517
aF0.720146
aF-0.0177708
aF0.664065
aF-0.0181331
aF0.509414
aF-0.0181971
aF0.468089
aF-0.0178396
aa.