(lp0
(lp1
F8.01374
aF-0.0251188
aF8.14741
aF-0.0274812
aF8.28125
aF-0.0311193
aF8.38069
aF-0.0331548
aF8.50587
aF-0.0434025
aF8.64933
aF-0.054116
aF8.8418
aF-0.0617776
aF9.00466
aF-0.0679919
aF9.15435
aF-0.0746955
aF9.32073
aF-0.0978911
aF9.53471
aF-0.125531
aF9.79381
aF-0.132242
aF9.9672
aF-0.132205
aF10.2117
aF-0.135232
aF10.4522
aF-0.135549
aF10.7978
aF-0.135691
aF11.0717
aF-0.139065
aF11.2948
aF-0.1477
aF11.5476
aF-0.156296
aF11.7192
aF-0.163622
aa(lp2
F8.28125
aF-0.0311193
aF8.38069
aF-0.0331548
aF8.50587
aF-0.0434025
aF8.64933
aF-0.054116
aF8.8418
aF-0.0617776
aF9.00466
aF-0.0679919
aF9.15435
aF-0.0746955
aF9.32073
aF-0.0978911
aF9.53471
aF-0.125531
aF9.79381
aF-0.132242
aF9.9672
aF-0.132205
aF10.2117
aF-0.135232
aF10.4522
aF-0.135549
aF10.7978
aF-0.135691
aF11.0717
aF-0.139065
aF11.2948
aF-0.1477
aF11.5476
aF-0.156296
aF11.7192
aF-0.163622
aF11.8853
aF-0.157531
aF12.0261
aF-0.156099
aa(lp3
F8.50587
aF-0.0434025
aF8.64933
aF-0.054116
aF8.8418
aF-0.0617776
aF9.00466
aF-0.0679919
aF9.15435
aF-0.0746955
aF9.32073
aF-0.0978911
aF9.53471
aF-0.125531
aF9.79381
aF-0.132242
aF9.9672
aF-0.132205
aF10.2117
aF-0.135232
aF10.4522
aF-0.135549
aF10.7978
aF-0.135691
aF11.0717
aF-0.139065
aF11.2948
aF-0.1477
aF11.5476
aF-0.156296
aF11.7192
aF-0.163622
aF11.8853
aF-0.157531
aF12.0261
aF-0.156099
aF12.2629
aF-0.138138
aF12.4366
aF-0.129245
aa(lp4
F8.8418
aF-0.0617776
aF9.00466
aF-0.0679919
aF9.15435
aF-0.0746955
aF9.32073
aF-0.0978911
aF9.53471
aF-0.125531
aF9.79381
aF-0.132242
aF9.9672
aF-0.132205
aF10.2117
aF-0.135232
aF10.4522
aF-0.135549
aF10.7978
aF-0.135691
aF11.0717
aF-0.139065
aF11.2948
aF-0.1477
aF11.5476
aF-0.156296
aF11.7192
aF-0.163622
aF11.8853
aF-0.157531
aF12.0261
aF-0.156099
aF12.2629
aF-0.138138
aF12.4366
aF-0.129245
aF12.5941
aF-0.114898
aF12.8225
aF-0.109676
aa.