(lp0
(lp1
F13.8
aF0.00157047
aF13.937
aF-0.0035104
aF13.8109
aF-0.00423866
aF13.827
aF-0.00159653
aF13.8058
aF0.00471448
aF13.7413
aF0.0199433
aF13.703
aF0.0332226
aF13.6019
aF0.0397912
aF13.2506
aF0.0404347
aF12.3398
aF0.0410936
aF10.9406
aF0.034167
aF9.74188
aF0.0236618
aF8.48881
aF0.0104699
aF7.38466
aF-0.00255268
aF6.48933
aF-0.0162144
aF5.2008
aF-0.0228135
aF4.19747
aF-0.0216414
aF3.26616
aF-0.0151802
aF2.38355
aF-0.00836663
aF1.57603
aF-0.00160187
aa(lp2
F13.8109
aF-0.00423866
aF13.827
aF-0.00159653
aF13.8058
aF0.00471448
aF13.7413
aF0.0199433
aF13.703
aF0.0332226
aF13.6019
aF0.0397912
aF13.2506
aF0.0404347
aF12.3398
aF0.0410936
aF10.9406
aF0.034167
aF9.74188
aF0.0236618
aF8.48881
aF0.0104699
aF7.38466
aF-0.00255268
aF6.48933
aF-0.0162144
aF5.2008
aF-0.0228135
aF4.19747
aF-0.0216414
aF3.26616
aF-0.0151802
aF2.38355
aF-0.00836663
aF1.57603
aF-0.00160187
aF1.05212
aF0.00414688
aF0.622072
aF0.00890378
aa(lp3
F13.8058
aF0.00471448
aF13.7413
aF0.0199433
aF13.703
aF0.0332226
aF13.6019
aF0.0397912
aF13.2506
aF0.0404347
aF12.3398
aF0.0410936
aF10.9406
aF0.034167
aF9.74188
aF0.0236618
aF8.48881
aF0.0104699
aF7.38466
aF-0.00255268
aF6.48933
aF-0.0162144
aF5.2008
aF-0.0228135
aF4.19747
aF-0.0216414
aF3.26616
aF-0.0151802
aF2.38355
aF-0.00836663
aF1.57603
aF-0.00160187
aF1.05212
aF0.00414688
aF0.622072
aF0.00890378
aF0.355992
aF0.0121081
aF0.261924
aF0.0120749
aa.