(lp0
(lp1
F15.7924
aF0.0359961
aF15.7665
aF0.0414889
aF15.7691
aF0.0378991
aF15.7676
aF0.0351714
aF15.65
aF0.036928
aF15.6559
aF0.034869
aF15.5759
aF0.0360048
aF15.5665
aF0.0450902
aF15.5496
aF0.0686231
aF15.6018
aF0.100325
aF15.6124
aF0.118028
aF15.6045
aF0.122518
aF15.5924
aF0.135376
aF15.7005
aF0.130606
aF15.7361
aF0.138768
aF15.8145
aF0.133417
aF15.9049
aF0.121755
aF15.9693
aF0.0910349
aF16.0618
aF0.0757061
aF16.1142
aF0.0661124
aa(lp2
F15.7691
aF0.0378991
aF15.7676
aF0.0351714
aF15.65
aF0.036928
aF15.6559
aF0.034869
aF15.5759
aF0.0360048
aF15.5665
aF0.0450902
aF15.5496
aF0.0686231
aF15.6018
aF0.100325
aF15.6124
aF0.118028
aF15.6045
aF0.122518
aF15.5924
aF0.135376
aF15.7005
aF0.130606
aF15.7361
aF0.138768
aF15.8145
aF0.133417
aF15.9049
aF0.121755
aF15.9693
aF0.0910349
aF16.0618
aF0.0757061
aF16.1142
aF0.0661124
aF16.2003
aF0.0590078
aF16.2455
aF0.055051
aa(lp3
F15.65
aF0.036928
aF15.6559
aF0.034869
aF15.5759
aF0.0360048
aF15.5665
aF0.0450902
aF15.5496
aF0.0686231
aF15.6018
aF0.100325
aF15.6124
aF0.118028
aF15.6045
aF0.122518
aF15.5924
aF0.135376
aF15.7005
aF0.130606
aF15.7361
aF0.138768
aF15.8145
aF0.133417
aF15.9049
aF0.121755
aF15.9693
aF0.0910349
aF16.0618
aF0.0757061
aF16.1142
aF0.0661124
aF16.2003
aF0.0590078
aF16.2455
aF0.055051
aF16.3284
aF0.0478878
aF16.4205
aF0.0492375
aa.