(lp0
(lp1
F14.3713
aF-0.0094153
aF14.4018
aF0.0139384
aF14.3027
aF0.0309916
aF14.1062
aF0.049632
aF13.8313
aF0.0693233
aF13.5771
aF0.082102
aF13.4235
aF0.100438
aF12.9796
aF0.114208
aF12.5302
aF0.12574
aF12.4385
aF0.132841
aF12.222
aF0.154971
aF11.8063
aF0.192753
aF11.4123
aF0.211057
aF11.2827
aF0.227203
aF11.1925
aF0.262311
aF11.0891
aF0.29578
aF11.006
aF0.309322
aF10.893
aF0.316413
aF11.0827
aF0.336441
aF11.1097
aF0.360082
aa(lp2
F14.3027
aF0.0309916
aF14.1062
aF0.049632
aF13.8313
aF0.0693233
aF13.5771
aF0.082102
aF13.4235
aF0.100438
aF12.9796
aF0.114208
aF12.5302
aF0.12574
aF12.4385
aF0.132841
aF12.222
aF0.154971
aF11.8063
aF0.192753
aF11.4123
aF0.211057
aF11.2827
aF0.227203
aF11.1925
aF0.262311
aF11.0891
aF0.29578
aF11.006
aF0.309322
aF10.893
aF0.316413
aF11.0827
aF0.336441
aF11.1097
aF0.360082
aF11.176
aF0.37332
aF11.2899
aF0.352804
aa(lp3
F13.8313
aF0.0693233
aF13.5771
aF0.082102
aF13.4235
aF0.100438
aF12.9796
aF0.114208
aF12.5302
aF0.12574
aF12.4385
aF0.132841
aF12.222
aF0.154971
aF11.8063
aF0.192753
aF11.4123
aF0.211057
aF11.2827
aF0.227203
aF11.1925
aF0.262311
aF11.0891
aF0.29578
aF11.006
aF0.309322
aF10.893
aF0.316413
aF11.0827
aF0.336441
aF11.1097
aF0.360082
aF11.176
aF0.37332
aF11.2899
aF0.352804
aF11.3473
aF0.326214
aF11.4519
aF0.26257
aa(lp4
F13.4235
aF0.100438
aF12.9796
aF0.114208
aF12.5302
aF0.12574
aF12.4385
aF0.132841
aF12.222
aF0.154971
aF11.8063
aF0.192753
aF11.4123
aF0.211057
aF11.2827
aF0.227203
aF11.1925
aF0.262311
aF11.0891
aF0.29578
aF11.006
aF0.309322
aF10.893
aF0.316413
aF11.0827
aF0.336441
aF11.1097
aF0.360082
aF11.176
aF0.37332
aF11.2899
aF0.352804
aF11.3473
aF0.326214
aF11.4519
aF0.26257
aF11.5773
aF0.2011
aF11.7788
aF0.144416
aa(lp5
F12.5302
aF0.12574
aF12.4385
aF0.132841
aF12.222
aF0.154971
aF11.8063
aF0.192753
aF11.4123
aF0.211057
aF11.2827
aF0.227203
aF11.1925
aF0.262311
aF11.0891
aF0.29578
aF11.006
aF0.309322
aF10.893
aF0.316413
aF11.0827
aF0.336441
aF11.1097
aF0.360082
aF11.176
aF0.37332
aF11.2899
aF0.352804
aF11.3473
aF0.326214
aF11.4519
aF0.26257
aF11.5773
aF0.2011
aF11.7788
aF0.144416
aF11.9179
aF0.0935589
aF12.0462
aF0.053898
aa.