(lp0
(lp1
F15.2751
aF-0.0204781
aF14.9593
aF-0.0431043
aF14.7284
aF-0.065016
aF14.596
aF-0.0777962
aF14.4973
aF-0.0913582
aF14.4206
aF-0.0981976
aF14.3217
aF-0.109161
aF14.2175
aF-0.121141
aF14.1114
aF-0.124066
aF14.0144
aF-0.136444
aF13.9137
aF-0.150439
aF13.8037
aF-0.162367
aF13.6798
aF-0.156504
aF13.517
aF-0.132883
aF13.3947
aF-0.107866
aF13.2758
aF-0.108189
aF13.1674
aF-0.166417
aF13.2126
aF-0.186606
aF13.3192
aF-0.174671
aF13.419
aF-0.14879
aa(lp2
F14.7284
aF-0.065016
aF14.596
aF-0.0777962
aF14.4973
aF-0.0913582
aF14.4206
aF-0.0981976
aF14.3217
aF-0.109161
aF14.2175
aF-0.121141
aF14.1114
aF-0.124066
aF14.0144
aF-0.136444
aF13.9137
aF-0.150439
aF13.8037
aF-0.162367
aF13.6798
aF-0.156504
aF13.517
aF-0.132883
aF13.3947
aF-0.107866
aF13.2758
aF-0.108189
aF13.1674
aF-0.166417
aF13.2126
aF-0.186606
aF13.3192
aF-0.174671
aF13.419
aF-0.14879
aF13.525
aF-0.117148
aF13.6075
aF-0.0914134
aa.