(lp0
(lp1
F13.59
aF0.00664155
aF13.5797
aF0.00640131
aF13.5698
aF0.00763449
aF13.5769
aF0.00713318
aF13.6019
aF0.0104657
aF13.5079
aF0.010119
aF13.4177
aF0.0160422
aF13.3271
aF0.0172529
aF13.2479
aF0.0176038
aF13.1118
aF0.00767525
aF13.0858
aF0.00432573
aF13.0701
aF-0.00467911
aF13.0539
aF-0.00498271
aF13.035
aF-0.00632991
aF13.0484
aF-0.00889764
aF13.0192
aF-0.0119979
aF13.0402
aF-0.011138
aF13.0086
aF-0.00941591
aF12.9929
aF-3.30117e-05
aF12.9569
aF-0.00193225
aa(lp2
F13.5698
aF0.00763449
aF13.5769
aF0.00713318
aF13.6019
aF0.0104657
aF13.5079
aF0.010119
aF13.4177
aF0.0160422
aF13.3271
aF0.0172529
aF13.2479
aF0.0176038
aF13.1118
aF0.00767525
aF13.0858
aF0.00432573
aF13.0701
aF-0.00467911
aF13.0539
aF-0.00498271
aF13.035
aF-0.00632991
aF13.0484
aF-0.00889764
aF13.0192
aF-0.0119979
aF13.0402
aF-0.011138
aF13.0086
aF-0.00941591
aF12.9929
aF-3.30117e-05
aF12.9569
aF-0.00193225
aF12.9071
aF0.000217907
aF12.9054
aF0.00400032
aa(lp3
F13.6019
aF0.0104657
aF13.5079
aF0.010119
aF13.4177
aF0.0160422
aF13.3271
aF0.0172529
aF13.2479
aF0.0176038
aF13.1118
aF0.00767525
aF13.0858
aF0.00432573
aF13.0701
aF-0.00467911
aF13.0539
aF-0.00498271
aF13.035
aF-0.00632991
aF13.0484
aF-0.00889764
aF13.0192
aF-0.0119979
aF13.0402
aF-0.011138
aF13.0086
aF-0.00941591
aF12.9929
aF-3.30117e-05
aF12.9569
aF-0.00193225
aF12.9071
aF0.000217907
aF12.9054
aF0.00400032
aF12.784
aF0.00873591
aF12.6638
aF0.0128434
aa(lp4
F13.4177
aF0.0160422
aF13.3271
aF0.0172529
aF13.2479
aF0.0176038
aF13.1118
aF0.00767525
aF13.0858
aF0.00432573
aF13.0701
aF-0.00467911
aF13.0539
aF-0.00498271
aF13.035
aF-0.00632991
aF13.0484
aF-0.00889764
aF13.0192
aF-0.0119979
aF13.0402
aF-0.011138
aF13.0086
aF-0.00941591
aF12.9929
aF-3.30117e-05
aF12.9569
aF-0.00193225
aF12.9071
aF0.000217907
aF12.9054
aF0.00400032
aF12.784
aF0.00873591
aF12.6638
aF0.0128434
aF12.5822
aF0.016812
aF12.4839
aF0.0128419
aa(lp5
F13.2479
aF0.0176038
aF13.1118
aF0.00767525
aF13.0858
aF0.00432573
aF13.0701
aF-0.00467911
aF13.0539
aF-0.00498271
aF13.035
aF-0.00632991
aF13.0484
aF-0.00889764
aF13.0192
aF-0.0119979
aF13.0402
aF-0.011138
aF13.0086
aF-0.00941591
aF12.9929
aF-3.30117e-05
aF12.9569
aF-0.00193225
aF12.9071
aF0.000217907
aF12.9054
aF0.00400032
aF12.784
aF0.00873591
aF12.6638
aF0.0128434
aF12.5822
aF0.016812
aF12.4839
aF0.0128419
aF12.3963
aF0.0145944
aF12.3062
aF0.00733148
aa.