(lp0
(lp1
F9.05827
aF0.0451231
aF9.18732
aF0.0206193
aF9.26862
aF-0.000911028
aF9.37333
aF-0.0163323
aF9.45393
aF-0.0183478
aF9.55258
aF-0.0189551
aF9.64664
aF-0.015205
aF9.74459
aF-0.00840526
aF9.88606
aF0.000468371
aF9.99971
aF0.00943263
aF10.1801
aF0.00892613
aF10.2981
aF0.00878687
aF10.4463
aF0.0121798
aF10.5991
aF0.0379212
aF10.7062
aF0.047932
aF10.7625
aF0.0530735
aF10.8297
aF0.0527412
aF10.9131
aF0.0511992
aF11.0563
aF0.0278224
aF11.1515
aF0.0116452
aa(lp2
F9.26862
aF-0.000911028
aF9.37333
aF-0.0163323
aF9.45393
aF-0.0183478
aF9.55258
aF-0.0189551
aF9.64664
aF-0.015205
aF9.74459
aF-0.00840526
aF9.88606
aF0.000468371
aF9.99971
aF0.00943263
aF10.1801
aF0.00892613
aF10.2981
aF0.00878687
aF10.4463
aF0.0121798
aF10.5991
aF0.0379212
aF10.7062
aF0.047932
aF10.7625
aF0.0530735
aF10.8297
aF0.0527412
aF10.9131
aF0.0511992
aF11.0563
aF0.0278224
aF11.1515
aF0.0116452
aF11.2019
aF0.00264081
aF11.2916
aF-0.00730878
aa(lp3
F9.45393
aF-0.0183478
aF9.55258
aF-0.0189551
aF9.64664
aF-0.015205
aF9.74459
aF-0.00840526
aF9.88606
aF0.000468371
aF9.99971
aF0.00943263
aF10.1801
aF0.00892613
aF10.2981
aF0.00878687
aF10.4463
aF0.0121798
aF10.5991
aF0.0379212
aF10.7062
aF0.047932
aF10.7625
aF0.0530735
aF10.8297
aF0.0527412
aF10.9131
aF0.0511992
aF11.0563
aF0.0278224
aF11.1515
aF0.0116452
aF11.2019
aF0.00264081
aF11.2916
aF-0.00730878
aF11.4218
aF-0.0102381
aF11.5594
aF-0.0180127
aa(lp4
F9.64664
aF-0.015205
aF9.74459
aF-0.00840526
aF9.88606
aF0.000468371
aF9.99971
aF0.00943263
aF10.1801
aF0.00892613
aF10.2981
aF0.00878687
aF10.4463
aF0.0121798
aF10.5991
aF0.0379212
aF10.7062
aF0.047932
aF10.7625
aF0.0530735
aF10.8297
aF0.0527412
aF10.9131
aF0.0511992
aF11.0563
aF0.0278224
aF11.1515
aF0.0116452
aF11.2019
aF0.00264081
aF11.2916
aF-0.00730878
aF11.4218
aF-0.0102381
aF11.5594
aF-0.0180127
aF11.7586
aF-0.0334701
aF11.9109
aF-0.0431364
aa.