(lp0
(lp1
F10.8297
aF0.0527412
aF10.9131
aF0.0511992
aF11.0563
aF0.0278224
aF11.1515
aF0.0116452
aF11.2019
aF0.00264081
aF11.2916
aF-0.00730878
aF11.4218
aF-0.0102381
aF11.5594
aF-0.0180127
aF11.7586
aF-0.0334701
aF11.9109
aF-0.0431364
aF12.1521
aF-0.0435018
aF12.3674
aF-0.0499462
aF12.4106
aF-0.0496081
aF12.4246
aF-0.0480463
aF12.4322
aF-0.0385103
aF12.4027
aF-0.0341999
aF12.3721
aF-0.0357979
aF12.3527
aF-0.0302467
aF12.5594
aF-0.0335832
aF12.7291
aF-0.0259839
aa(lp2
F11.0563
aF0.0278224
aF11.1515
aF0.0116452
aF11.2019
aF0.00264081
aF11.2916
aF-0.00730878
aF11.4218
aF-0.0102381
aF11.5594
aF-0.0180127
aF11.7586
aF-0.0334701
aF11.9109
aF-0.0431364
aF12.1521
aF-0.0435018
aF12.3674
aF-0.0499462
aF12.4106
aF-0.0496081
aF12.4246
aF-0.0480463
aF12.4322
aF-0.0385103
aF12.4027
aF-0.0341999
aF12.3721
aF-0.0357979
aF12.3527
aF-0.0302467
aF12.5594
aF-0.0335832
aF12.7291
aF-0.0259839
aF12.8903
aF-0.0130858
aF13.0385
aF-0.0077902
aa(lp3
F11.2019
aF0.00264081
aF11.2916
aF-0.00730878
aF11.4218
aF-0.0102381
aF11.5594
aF-0.0180127
aF11.7586
aF-0.0334701
aF11.9109
aF-0.0431364
aF12.1521
aF-0.0435018
aF12.3674
aF-0.0499462
aF12.4106
aF-0.0496081
aF12.4246
aF-0.0480463
aF12.4322
aF-0.0385103
aF12.4027
aF-0.0341999
aF12.3721
aF-0.0357979
aF12.3527
aF-0.0302467
aF12.5594
aF-0.0335832
aF12.7291
aF-0.0259839
aF12.8903
aF-0.0130858
aF13.0385
aF-0.0077902
aF13.1505
aF-0.00508321
aF13.2622
aF-0.00288718
aa(lp4
F11.4218
aF-0.0102381
aF11.5594
aF-0.0180127
aF11.7586
aF-0.0334701
aF11.9109
aF-0.0431364
aF12.1521
aF-0.0435018
aF12.3674
aF-0.0499462
aF12.4106
aF-0.0496081
aF12.4246
aF-0.0480463
aF12.4322
aF-0.0385103
aF12.4027
aF-0.0341999
aF12.3721
aF-0.0357979
aF12.3527
aF-0.0302467
aF12.5594
aF-0.0335832
aF12.7291
aF-0.0259839
aF12.8903
aF-0.0130858
aF13.0385
aF-0.0077902
aF13.1505
aF-0.00508321
aF13.2622
aF-0.00288718
aF13.242
aF-0.00288818
aF13.3173
aF-0.000665041
aa(lp5
F11.7586
aF-0.0334701
aF11.9109
aF-0.0431364
aF12.1521
aF-0.0435018
aF12.3674
aF-0.0499462
aF12.4106
aF-0.0496081
aF12.4246
aF-0.0480463
aF12.4322
aF-0.0385103
aF12.4027
aF-0.0341999
aF12.3721
aF-0.0357979
aF12.3527
aF-0.0302467
aF12.5594
aF-0.0335832
aF12.7291
aF-0.0259839
aF12.8903
aF-0.0130858
aF13.0385
aF-0.0077902
aF13.1505
aF-0.00508321
aF13.2622
aF-0.00288718
aF13.242
aF-0.00288818
aF13.3173
aF-0.000665041
aF13.4753
aF-0.00296418
aF13.4917
aF-0.00498051
aa.