(lp0
(lp1
F2.72819
aF0.00932946
aF3.11254
aF0.0224353
aF3.22229
aF0.0270235
aF3.22714
aF0.0311176
aF3.25703
aF0.03044
aF3.29039
aF0.0314036
aF3.35116
aF0.0306724
aF3.40297
aF0.0311151
aF3.42121
aF0.0317233
aF3.58978
aF0.0308977
aF3.76277
aF0.0329825
aF3.96133
aF0.0354803
aF4.17501
aF0.0371895
aF4.37063
aF0.0374004
aF4.55508
aF0.0382722
aF4.72842
aF0.0381065
aF4.92894
aF0.0346789
aF4.96122
aF0.0276663
aF5.1584
aF0.0220123
aF5.36269
aF0.0229459
aa(lp2
F3.22229
aF0.0270235
aF3.22714
aF0.0311176
aF3.25703
aF0.03044
aF3.29039
aF0.0314036
aF3.35116
aF0.0306724
aF3.40297
aF0.0311151
aF3.42121
aF0.0317233
aF3.58978
aF0.0308977
aF3.76277
aF0.0329825
aF3.96133
aF0.0354803
aF4.17501
aF0.0371895
aF4.37063
aF0.0374004
aF4.55508
aF0.0382722
aF4.72842
aF0.0381065
aF4.92894
aF0.0346789
aF4.96122
aF0.0276663
aF5.1584
aF0.0220123
aF5.36269
aF0.0229459
aF5.5746
aF0.0231676
aF5.78028
aF0.0240426
aa(lp3
F3.25703
aF0.03044
aF3.29039
aF0.0314036
aF3.35116
aF0.0306724
aF3.40297
aF0.0311151
aF3.42121
aF0.0317233
aF3.58978
aF0.0308977
aF3.76277
aF0.0329825
aF3.96133
aF0.0354803
aF4.17501
aF0.0371895
aF4.37063
aF0.0374004
aF4.55508
aF0.0382722
aF4.72842
aF0.0381065
aF4.92894
aF0.0346789
aF4.96122
aF0.0276663
aF5.1584
aF0.0220123
aF5.36269
aF0.0229459
aF5.5746
aF0.0231676
aF5.78028
aF0.0240426
aF5.99469
aF0.0311769
aF6.08313
aF0.042089
aa(lp4
F3.35116
aF0.0306724
aF3.40297
aF0.0311151
aF3.42121
aF0.0317233
aF3.58978
aF0.0308977
aF3.76277
aF0.0329825
aF3.96133
aF0.0354803
aF4.17501
aF0.0371895
aF4.37063
aF0.0374004
aF4.55508
aF0.0382722
aF4.72842
aF0.0381065
aF4.92894
aF0.0346789
aF4.96122
aF0.0276663
aF5.1584
aF0.0220123
aF5.36269
aF0.0229459
aF5.5746
aF0.0231676
aF5.78028
aF0.0240426
aF5.99469
aF0.0311769
aF6.08313
aF0.042089
aF6.21793
aF0.0429286
aF6.32891
aF0.0432845
aa(lp5
F3.42121
aF0.0317233
aF3.58978
aF0.0308977
aF3.76277
aF0.0329825
aF3.96133
aF0.0354803
aF4.17501
aF0.0371895
aF4.37063
aF0.0374004
aF4.55508
aF0.0382722
aF4.72842
aF0.0381065
aF4.92894
aF0.0346789
aF4.96122
aF0.0276663
aF5.1584
aF0.0220123
aF5.36269
aF0.0229459
aF5.5746
aF0.0231676
aF5.78028
aF0.0240426
aF5.99469
aF0.0311769
aF6.08313
aF0.042089
aF6.21793
aF0.0429286
aF6.32891
aF0.0432845
aF6.47881
aF0.0407776
aF6.59609
aF0.0395237
aa(lp6
F3.76277
aF0.0329825
aF3.96133
aF0.0354803
aF4.17501
aF0.0371895
aF4.37063
aF0.0374004
aF4.55508
aF0.0382722
aF4.72842
aF0.0381065
aF4.92894
aF0.0346789
aF4.96122
aF0.0276663
aF5.1584
aF0.0220123
aF5.36269
aF0.0229459
aF5.5746
aF0.0231676
aF5.78028
aF0.0240426
aF5.99469
aF0.0311769
aF6.08313
aF0.042089
aF6.21793
aF0.0429286
aF6.32891
aF0.0432845
aF6.47881
aF0.0407776
aF6.59609
aF0.0395237
aF6.68698
aF0.0404509
aF6.87055
aF0.039086
aa(lp7
F4.17501
aF0.0371895
aF4.37063
aF0.0374004
aF4.55508
aF0.0382722
aF4.72842
aF0.0381065
aF4.92894
aF0.0346789
aF4.96122
aF0.0276663
aF5.1584
aF0.0220123
aF5.36269
aF0.0229459
aF5.5746
aF0.0231676
aF5.78028
aF0.0240426
aF5.99469
aF0.0311769
aF6.08313
aF0.042089
aF6.21793
aF0.0429286
aF6.32891
aF0.0432845
aF6.47881
aF0.0407776
aF6.59609
aF0.0395237
aF6.68698
aF0.0404509
aF6.87055
aF0.039086
aF7.09091
aF0.0418819
aF7.36356
aF0.041487
aa.