(lp0
(lp1
F0.0
aF0.0
aF0.474924
aF0.0107288
aF0.526039
aF0.010776
aF0.570797
aF0.0110148
aF0.573981
aF0.0108213
aF0.549784
aF0.0104742
aF0.45034
aF0.00995915
aF0.320925
aF0.00714029
aF0.227497
aF0.000797527
aF0.332084
aF-0.00404146
aF0.470058
aF-0.00716464
aF0.833644
aF-0.0118604
aF1.06797
aF-0.0136218
aF1.58313
aF-0.0132811
aF2.07861
aF-0.00265419
aF2.72819
aF0.00932946
aF3.11254
aF0.0224353
aF3.22229
aF0.0270235
aF3.22714
aF0.0311176
aF3.25703
aF0.03044
aa(lp2
F0.526039
aF0.010776
aF0.570797
aF0.0110148
aF0.573981
aF0.0108213
aF0.549784
aF0.0104742
aF0.45034
aF0.00995915
aF0.320925
aF0.00714029
aF0.227497
aF0.000797527
aF0.332084
aF-0.00404146
aF0.470058
aF-0.00716464
aF0.833644
aF-0.0118604
aF1.06797
aF-0.0136218
aF1.58313
aF-0.0132811
aF2.07861
aF-0.00265419
aF2.72819
aF0.00932946
aF3.11254
aF0.0224353
aF3.22229
aF0.0270235
aF3.22714
aF0.0311176
aF3.25703
aF0.03044
aF3.29039
aF0.0314036
aF3.35116
aF0.0306724
aa(lp3
F0.573981
aF0.0108213
aF0.549784
aF0.0104742
aF0.45034
aF0.00995915
aF0.320925
aF0.00714029
aF0.227497
aF0.000797527
aF0.332084
aF-0.00404146
aF0.470058
aF-0.00716464
aF0.833644
aF-0.0118604
aF1.06797
aF-0.0136218
aF1.58313
aF-0.0132811
aF2.07861
aF-0.00265419
aF2.72819
aF0.00932946
aF3.11254
aF0.0224353
aF3.22229
aF0.0270235
aF3.22714
aF0.0311176
aF3.25703
aF0.03044
aF3.29039
aF0.0314036
aF3.35116
aF0.0306724
aF3.40297
aF0.0311151
aF3.42121
aF0.0317233
aa.