(lp0
(lp1
F12.2776
aF0.00433393
aF12.2151
aF0.00473757
aF12.1988
aF0.0101575
aF12.162
aF0.0145693
aF12.1665
aF0.0193916
aF12.0799
aF0.0231151
aF12.0536
aF0.0310902
aF11.9363
aF0.0309146
aF11.9134
aF0.0351449
aF11.8112
aF0.0371521
aF11.7207
aF0.04049
aF11.5396
aF0.0469121
aF11.4288
aF0.0486996
aF11.3512
aF0.0495058
aF11.2741
aF0.0490357
aF11.1981
aF0.0478777
aF11.1242
aF0.0465247
aF11.0608
aF0.0471418
aF10.9813
aF0.046223
aF10.9361
aF0.0465146
aa(lp2
F12.1988
aF0.0101575
aF12.162
aF0.0145693
aF12.1665
aF0.0193916
aF12.0799
aF0.0231151
aF12.0536
aF0.0310902
aF11.9363
aF0.0309146
aF11.9134
aF0.0351449
aF11.8112
aF0.0371521
aF11.7207
aF0.04049
aF11.5396
aF0.0469121
aF11.4288
aF0.0486996
aF11.3512
aF0.0495058
aF11.2741
aF0.0490357
aF11.1981
aF0.0478777
aF11.1242
aF0.0465247
aF11.0608
aF0.0471418
aF10.9813
aF0.046223
aF10.9361
aF0.0465146
aF10.8681
aF0.054856
aF10.7621
aF0.0554382
aa(lp3
F12.1665
aF0.0193916
aF12.0799
aF0.0231151
aF12.0536
aF0.0310902
aF11.9363
aF0.0309146
aF11.9134
aF0.0351449
aF11.8112
aF0.0371521
aF11.7207
aF0.04049
aF11.5396
aF0.0469121
aF11.4288
aF0.0486996
aF11.3512
aF0.0495058
aF11.2741
aF0.0490357
aF11.1981
aF0.0478777
aF11.1242
aF0.0465247
aF11.0608
aF0.0471418
aF10.9813
aF0.046223
aF10.9361
aF0.0465146
aF10.8681
aF0.054856
aF10.7621
aF0.0554382
aF10.6801
aF0.0597832
aF10.6041
aF0.0620373
aa(lp4
F12.0536
aF0.0310902
aF11.9363
aF0.0309146
aF11.9134
aF0.0351449
aF11.8112
aF0.0371521
aF11.7207
aF0.04049
aF11.5396
aF0.0469121
aF11.4288
aF0.0486996
aF11.3512
aF0.0495058
aF11.2741
aF0.0490357
aF11.1981
aF0.0478777
aF11.1242
aF0.0465247
aF11.0608
aF0.0471418
aF10.9813
aF0.046223
aF10.9361
aF0.0465146
aF10.8681
aF0.054856
aF10.7621
aF0.0554382
aF10.6801
aF0.0597832
aF10.6041
aF0.0620373
aF10.5778
aF0.0642816
aF10.4636
aF0.0643078
aa(lp5
F11.9134
aF0.0351449
aF11.8112
aF0.0371521
aF11.7207
aF0.04049
aF11.5396
aF0.0469121
aF11.4288
aF0.0486996
aF11.3512
aF0.0495058
aF11.2741
aF0.0490357
aF11.1981
aF0.0478777
aF11.1242
aF0.0465247
aF11.0608
aF0.0471418
aF10.9813
aF0.046223
aF10.9361
aF0.0465146
aF10.8681
aF0.054856
aF10.7621
aF0.0554382
aF10.6801
aF0.0597832
aF10.6041
aF0.0620373
aF10.5778
aF0.0642816
aF10.4636
aF0.0643078
aF10.3886
aF0.0644425
aF10.2978
aF0.0631141
aa(lp6
F11.7207
aF0.04049
aF11.5396
aF0.0469121
aF11.4288
aF0.0486996
aF11.3512
aF0.0495058
aF11.2741
aF0.0490357
aF11.1981
aF0.0478777
aF11.1242
aF0.0465247
aF11.0608
aF0.0471418
aF10.9813
aF0.046223
aF10.9361
aF0.0465146
aF10.8681
aF0.054856
aF10.7621
aF0.0554382
aF10.6801
aF0.0597832
aF10.6041
aF0.0620373
aF10.5778
aF0.0642816
aF10.4636
aF0.0643078
aF10.3886
aF0.0644425
aF10.2978
aF0.0631141
aF10.2045
aF0.0623342
aF10.1083
aF0.0610627
aa(lp7
F11.4288
aF0.0486996
aF11.3512
aF0.0495058
aF11.2741
aF0.0490357
aF11.1981
aF0.0478777
aF11.1242
aF0.0465247
aF11.0608
aF0.0471418
aF10.9813
aF0.046223
aF10.9361
aF0.0465146
aF10.8681
aF0.054856
aF10.7621
aF0.0554382
aF10.6801
aF0.0597832
aF10.6041
aF0.0620373
aF10.5778
aF0.0642816
aF10.4636
aF0.0643078
aF10.3886
aF0.0644425
aF10.2978
aF0.0631141
aF10.2045
aF0.0623342
aF10.1083
aF0.0610627
aF10.0215
aF0.0605953
aF9.90911
aF0.0606363
aa(lp8
F11.2741
aF0.0490357
aF11.1981
aF0.0478777
aF11.1242
aF0.0465247
aF11.0608
aF0.0471418
aF10.9813
aF0.046223
aF10.9361
aF0.0465146
aF10.8681
aF0.054856
aF10.7621
aF0.0554382
aF10.6801
aF0.0597832
aF10.6041
aF0.0620373
aF10.5778
aF0.0642816
aF10.4636
aF0.0643078
aF10.3886
aF0.0644425
aF10.2978
aF0.0631141
aF10.2045
aF0.0623342
aF10.1083
aF0.0610627
aF10.0215
aF0.0605953
aF9.90911
aF0.0606363
aF9.8093
aF0.0582135
aF9.68174
aF0.0576942
aa.