(lp0
(lp1
F7.64152
aF0.0409964
aF7.91419
aF0.0407174
aF8.21181
aF0.039282
aF8.42392
aF0.0344384
aF8.63492
aF0.0248807
aF8.76801
aF0.0224132
aF8.92382
aF0.0220793
aF9.06334
aF0.0188058
aF9.22547
aF0.0202418
aF9.33983
aF0.0217463
aF9.42495
aF0.0326181
aF9.47683
aF0.0451676
aF9.5845
aF0.0539963
aF9.63029
aF0.0656656
aF9.70704
aF0.0748022
aF9.73864
aF0.0986971
aF9.81206
aF0.114078
aF10.0042
aF0.119065
aF10.1799
aF0.137838
aF10.3391
aF0.148829
aa(lp2
F8.21181
aF0.039282
aF8.42392
aF0.0344384
aF8.63492
aF0.0248807
aF8.76801
aF0.0224132
aF8.92382
aF0.0220793
aF9.06334
aF0.0188058
aF9.22547
aF0.0202418
aF9.33983
aF0.0217463
aF9.42495
aF0.0326181
aF9.47683
aF0.0451676
aF9.5845
aF0.0539963
aF9.63029
aF0.0656656
aF9.70704
aF0.0748022
aF9.73864
aF0.0986971
aF9.81206
aF0.114078
aF10.0042
aF0.119065
aF10.1799
aF0.137838
aF10.3391
aF0.148829
aF10.4363
aF0.153227
aF10.5974
aF0.15477
aa(lp3
F8.63492
aF0.0248807
aF8.76801
aF0.0224132
aF8.92382
aF0.0220793
aF9.06334
aF0.0188058
aF9.22547
aF0.0202418
aF9.33983
aF0.0217463
aF9.42495
aF0.0326181
aF9.47683
aF0.0451676
aF9.5845
aF0.0539963
aF9.63029
aF0.0656656
aF9.70704
aF0.0748022
aF9.73864
aF0.0986971
aF9.81206
aF0.114078
aF10.0042
aF0.119065
aF10.1799
aF0.137838
aF10.3391
aF0.148829
aF10.4363
aF0.153227
aF10.5974
aF0.15477
aF10.7068
aF0.157611
aF10.742
aF0.152622
aa(lp4
F8.92382
aF0.0220793
aF9.06334
aF0.0188058
aF9.22547
aF0.0202418
aF9.33983
aF0.0217463
aF9.42495
aF0.0326181
aF9.47683
aF0.0451676
aF9.5845
aF0.0539963
aF9.63029
aF0.0656656
aF9.70704
aF0.0748022
aF9.73864
aF0.0986971
aF9.81206
aF0.114078
aF10.0042
aF0.119065
aF10.1799
aF0.137838
aF10.3391
aF0.148829
aF10.4363
aF0.153227
aF10.5974
aF0.15477
aF10.7068
aF0.157611
aF10.742
aF0.152622
aF10.8035
aF0.131434
aF10.8672
aF0.117589
aa(lp5
F9.22547
aF0.0202418
aF9.33983
aF0.0217463
aF9.42495
aF0.0326181
aF9.47683
aF0.0451676
aF9.5845
aF0.0539963
aF9.63029
aF0.0656656
aF9.70704
aF0.0748022
aF9.73864
aF0.0986971
aF9.81206
aF0.114078
aF10.0042
aF0.119065
aF10.1799
aF0.137838
aF10.3391
aF0.148829
aF10.4363
aF0.153227
aF10.5974
aF0.15477
aF10.7068
aF0.157611
aF10.742
aF0.152622
aF10.8035
aF0.131434
aF10.8672
aF0.117589
aF10.9274
aF0.0860941
aF11.0418
aF0.0626905
aa(lp6
F9.42495
aF0.0326181
aF9.47683
aF0.0451676
aF9.5845
aF0.0539963
aF9.63029
aF0.0656656
aF9.70704
aF0.0748022
aF9.73864
aF0.0986971
aF9.81206
aF0.114078
aF10.0042
aF0.119065
aF10.1799
aF0.137838
aF10.3391
aF0.148829
aF10.4363
aF0.153227
aF10.5974
aF0.15477
aF10.7068
aF0.157611
aF10.742
aF0.152622
aF10.8035
aF0.131434
aF10.8672
aF0.117589
aF10.9274
aF0.0860941
aF11.0418
aF0.0626905
aF11.1329
aF0.0375841
aF11.2482
aF0.0113268
aa(lp7
F9.5845
aF0.0539963
aF9.63029
aF0.0656656
aF9.70704
aF0.0748022
aF9.73864
aF0.0986971
aF9.81206
aF0.114078
aF10.0042
aF0.119065
aF10.1799
aF0.137838
aF10.3391
aF0.148829
aF10.4363
aF0.153227
aF10.5974
aF0.15477
aF10.7068
aF0.157611
aF10.742
aF0.152622
aF10.8035
aF0.131434
aF10.8672
aF0.117589
aF10.9274
aF0.0860941
aF11.0418
aF0.0626905
aF11.1329
aF0.0375841
aF11.2482
aF0.0113268
aF11.3389
aF0.0025822
aF11.4104
aF0.00457141
aa.