(lp0
(lp1
F11.4547
aF0.00721729
aF11.425
aF0.00788385
aF11.3879
aF0.00665753
aF11.2882
aF0.00796787
aF11.1835
aF0.00303755
aF11.1754
aF-0.0139506
aF11.134
aF-0.0313
aF11.0955
aF-0.0426755
aF11.1032
aF-0.0633403
aF11.1436
aF-0.0671837
aF11.187
aF-0.0679598
aF11.1442
aF-0.0727573
aF11.0439
aF-0.087515
aF10.9807
aF-0.104412
aF10.6838
aF-0.119889
aF10.6052
aF-0.129171
aF10.6169
aF-0.132045
aF10.6467
aF-0.13327
aF10.6799
aF-0.137062
aF10.6944
aF-0.13985
aa(lp2
F11.3879
aF0.00665753
aF11.2882
aF0.00796787
aF11.1835
aF0.00303755
aF11.1754
aF-0.0139506
aF11.134
aF-0.0313
aF11.0955
aF-0.0426755
aF11.1032
aF-0.0633403
aF11.1436
aF-0.0671837
aF11.187
aF-0.0679598
aF11.1442
aF-0.0727573
aF11.0439
aF-0.087515
aF10.9807
aF-0.104412
aF10.6838
aF-0.119889
aF10.6052
aF-0.129171
aF10.6169
aF-0.132045
aF10.6467
aF-0.13327
aF10.6799
aF-0.137062
aF10.6944
aF-0.13985
aF10.6979
aF-0.141756
aF10.6999
aF-0.140775
aa.