(lp0
(lp1
F0.0
aF0.0
aF0.460971
aF-0.00760309
aF0.387902
aF-0.00764722
aF0.325045
aF-0.00760833
aF0.277693
aF-0.00762189
aF0.254445
aF-0.00750372
aF0.260056
aF-0.00758089
aF0.29402
aF-0.00742532
aF0.347722
aF-0.00781311
aF0.412531
aF-0.00736138
aF0.487968
aF-0.00790465
aF0.560741
aF-0.00778861
aF0.641385
aF-0.00887582
aF0.708818
aF-0.00767153
aF0.778822
aF-0.0128282
aF1.03408
aF-0.0132526
aF0.991719
aF-0.0183789
aF0.934596
aF-0.0228624
aF0.809668
aF-0.0208641
aF0.601554
aF-0.0129701
aa.