(lp0
(lp1
F13.3264
aF-0.132369
aF13.1245
aF-0.142473
aF12.8474
aF-0.188779
aF12.5631
aF-0.231019
aF12.2674
aF-0.251482
aF11.9371
aF-0.248947
aF11.6411
aF-0.243723
aF11.3747
aF-0.229254
aF11.1119
aF-0.208692
aF11.0099
aF-0.210829
aF10.8895
aF-0.1913
aF10.7755
aF-0.147774
aF10.6567
aF-0.0965997
aF10.5008
aF-0.020599
aF10.3276
aF0.0715088
aF10.1266
aF0.148985
aF9.86577
aF0.199798
aF9.68855
aF0.207628
aF9.56214
aF0.2092
aF9.46895
aF0.223094
aa(lp2
F12.8474
aF-0.188779
aF12.5631
aF-0.231019
aF12.2674
aF-0.251482
aF11.9371
aF-0.248947
aF11.6411
aF-0.243723
aF11.3747
aF-0.229254
aF11.1119
aF-0.208692
aF11.0099
aF-0.210829
aF10.8895
aF-0.1913
aF10.7755
aF-0.147774
aF10.6567
aF-0.0965997
aF10.5008
aF-0.020599
aF10.3276
aF0.0715088
aF10.1266
aF0.148985
aF9.86577
aF0.199798
aF9.68855
aF0.207628
aF9.56214
aF0.2092
aF9.46895
aF0.223094
aF9.48604
aF0.245363
aF9.30795
aF0.26737
aa.