(lp0
(lp1
F16.9012
aF0.0958454
aF17.193
aF0.0790547
aF17.4101
aF0.0909475
aF17.6336
aF0.0829553
aF17.841
aF0.0879348
aF17.9323
aF0.108584
aF18.0537
aF0.124475
aF18.176
aF0.138751
aF18.2272
aF0.134297
aF18.2228
aF0.118765
aF18.2801
aF0.106175
aF18.4686
aF0.0797115
aF18.4567
aF0.0766189
aF18.4323
aF0.0229094
aF18.4328
aF-0.057909
aF18.5194
aF-0.0952828
aF18.4803
aF0.0222822
aF18.4338
aF0.111744
aF18.3141
aF0.145004
aF18.2322
aF0.0537509
aa(lp2
F17.4101
aF0.0909475
aF17.6336
aF0.0829553
aF17.841
aF0.0879348
aF17.9323
aF0.108584
aF18.0537
aF0.124475
aF18.176
aF0.138751
aF18.2272
aF0.134297
aF18.2228
aF0.118765
aF18.2801
aF0.106175
aF18.4686
aF0.0797115
aF18.4567
aF0.0766189
aF18.4323
aF0.0229094
aF18.4328
aF-0.057909
aF18.5194
aF-0.0952828
aF18.4803
aF0.0222822
aF18.4338
aF0.111744
aF18.3141
aF0.145004
aF18.2322
aF0.0537509
aF18.2363
aF0.00121279
aF18.2417
aF-0.0069019
aa(lp3
F17.841
aF0.0879348
aF17.9323
aF0.108584
aF18.0537
aF0.124475
aF18.176
aF0.138751
aF18.2272
aF0.134297
aF18.2228
aF0.118765
aF18.2801
aF0.106175
aF18.4686
aF0.0797115
aF18.4567
aF0.0766189
aF18.4323
aF0.0229094
aF18.4328
aF-0.057909
aF18.5194
aF-0.0952828
aF18.4803
aF0.0222822
aF18.4338
aF0.111744
aF18.3141
aF0.145004
aF18.2322
aF0.0537509
aF18.2363
aF0.00121279
aF18.2417
aF-0.0069019
aF18.1749
aF-0.00869601
aF18.0788
aF-0.0116976
aa(lp4
F18.0537
aF0.124475
aF18.176
aF0.138751
aF18.2272
aF0.134297
aF18.2228
aF0.118765
aF18.2801
aF0.106175
aF18.4686
aF0.0797115
aF18.4567
aF0.0766189
aF18.4323
aF0.0229094
aF18.4328
aF-0.057909
aF18.5194
aF-0.0952828
aF18.4803
aF0.0222822
aF18.4338
aF0.111744
aF18.3141
aF0.145004
aF18.2322
aF0.0537509
aF18.2363
aF0.00121279
aF18.2417
aF-0.0069019
aF18.1749
aF-0.00869601
aF18.0788
aF-0.0116976
aF17.9021
aF-0.0354641
aF17.7326
aF-0.0479573
aa.