(lp0
(lp1
F14.4743
aF0.0659947
aF14.5092
aF0.075883
aF14.5058
aF0.0813844
aF14.4362
aF0.0857091
aF14.3033
aF0.087412
aF14.1019
aF0.0975672
aF13.7696
aF0.118591
aF13.3594
aF0.128927
aF12.8935
aF0.147472
aF12.4411
aF0.159613
aF12.0152
aF0.171488
aF11.841
aF0.173148
aF11.6992
aF0.170848
aF11.7011
aF0.18182
aF11.868
aF0.185083
aF11.9526
aF0.188062
aF12.0555
aF0.185082
aF12.172
aF0.176248
aF12.2129
aF0.15467
aF12.2916
aF0.103174
aa(lp2
F14.5058
aF0.0813844
aF14.4362
aF0.0857091
aF14.3033
aF0.087412
aF14.1019
aF0.0975672
aF13.7696
aF0.118591
aF13.3594
aF0.128927
aF12.8935
aF0.147472
aF12.4411
aF0.159613
aF12.0152
aF0.171488
aF11.841
aF0.173148
aF11.6992
aF0.170848
aF11.7011
aF0.18182
aF11.868
aF0.185083
aF11.9526
aF0.188062
aF12.0555
aF0.185082
aF12.172
aF0.176248
aF12.2129
aF0.15467
aF12.2916
aF0.103174
aF12.3968
aF0.051247
aF12.5279
aF0.0225788
aa(lp3
F14.3033
aF0.087412
aF14.1019
aF0.0975672
aF13.7696
aF0.118591
aF13.3594
aF0.128927
aF12.8935
aF0.147472
aF12.4411
aF0.159613
aF12.0152
aF0.171488
aF11.841
aF0.173148
aF11.6992
aF0.170848
aF11.7011
aF0.18182
aF11.868
aF0.185083
aF11.9526
aF0.188062
aF12.0555
aF0.185082
aF12.172
aF0.176248
aF12.2129
aF0.15467
aF12.2916
aF0.103174
aF12.3968
aF0.051247
aF12.5279
aF0.0225788
aF12.6323
aF0.0166723
aF12.761
aF-0.00457508
aa.