(lp0
(lp1
F14.3734
aF-0.0925332
aF14.3841
aF-0.0890405
aF14.4319
aF-0.0802849
aF14.6066
aF-0.0580771
aF14.7562
aF-0.0295128
aF14.9715
aF0.00520198
aF15.0792
aF0.0235752
aF15.1628
aF0.0368479
aF15.0706
aF0.0581694
aF14.9656
aF0.0637517
aF14.8225
aF0.086502
aF14.6348
aF0.148031
aF14.2593
aF0.198618
aF13.8725
aF0.240583
aF13.5473
aF0.248203
aF13.2507
aF0.251755
aF13.1525
aF0.250387
aF13.1153
aF0.251333
aF13.1335
aF0.226728
aF13.1575
aF0.197437
aa(lp2
F14.4319
aF-0.0802849
aF14.6066
aF-0.0580771
aF14.7562
aF-0.0295128
aF14.9715
aF0.00520198
aF15.0792
aF0.0235752
aF15.1628
aF0.0368479
aF15.0706
aF0.0581694
aF14.9656
aF0.0637517
aF14.8225
aF0.086502
aF14.6348
aF0.148031
aF14.2593
aF0.198618
aF13.8725
aF0.240583
aF13.5473
aF0.248203
aF13.2507
aF0.251755
aF13.1525
aF0.250387
aF13.1153
aF0.251333
aF13.1335
aF0.226728
aF13.1575
aF0.197437
aF13.1292
aF0.156075
aF13.2917
aF0.0948291
aa(lp3
F14.7562
aF-0.0295128
aF14.9715
aF0.00520198
aF15.0792
aF0.0235752
aF15.1628
aF0.0368479
aF15.0706
aF0.0581694
aF14.9656
aF0.0637517
aF14.8225
aF0.086502
aF14.6348
aF0.148031
aF14.2593
aF0.198618
aF13.8725
aF0.240583
aF13.5473
aF0.248203
aF13.2507
aF0.251755
aF13.1525
aF0.250387
aF13.1153
aF0.251333
aF13.1335
aF0.226728
aF13.1575
aF0.197437
aF13.1292
aF0.156075
aF13.2917
aF0.0948291
aF13.4978
aF0.0593466
aF13.5056
aF0.0327442
aa(lp4
F15.0792
aF0.0235752
aF15.1628
aF0.0368479
aF15.0706
aF0.0581694
aF14.9656
aF0.0637517
aF14.8225
aF0.086502
aF14.6348
aF0.148031
aF14.2593
aF0.198618
aF13.8725
aF0.240583
aF13.5473
aF0.248203
aF13.2507
aF0.251755
aF13.1525
aF0.250387
aF13.1153
aF0.251333
aF13.1335
aF0.226728
aF13.1575
aF0.197437
aF13.1292
aF0.156075
aF13.2917
aF0.0948291
aF13.4978
aF0.0593466
aF13.5056
aF0.0327442
aF13.7478
aF0.0167866
aF13.9889
aF0.0236775
aa(lp5
F15.0706
aF0.0581694
aF14.9656
aF0.0637517
aF14.8225
aF0.086502
aF14.6348
aF0.148031
aF14.2593
aF0.198618
aF13.8725
aF0.240583
aF13.5473
aF0.248203
aF13.2507
aF0.251755
aF13.1525
aF0.250387
aF13.1153
aF0.251333
aF13.1335
aF0.226728
aF13.1575
aF0.197437
aF13.1292
aF0.156075
aF13.2917
aF0.0948291
aF13.4978
aF0.0593466
aF13.5056
aF0.0327442
aF13.7478
aF0.0167866
aF13.9889
aF0.0236775
aF14.3036
aF0.0137012
aF14.5679
aF0.00426247
aa.