(lp0
(lp1
F10.7755
aF-0.147774
aF10.6567
aF-0.0965997
aF10.5008
aF-0.020599
aF10.3276
aF0.0715088
aF10.1266
aF0.148985
aF9.86577
aF0.199798
aF9.68855
aF0.207628
aF9.56214
aF0.2092
aF9.46895
aF0.223094
aF9.48604
aF0.245363
aF9.30795
aF0.26737
aF9.35452
aF0.267234
aF9.48763
aF0.260095
aF9.49483
aF0.246024
aF9.74821
aF0.212765
aF10.0519
aF0.194402
aF10.3423
aF0.179347
aF10.659
aF0.170724
aF10.9275
aF0.145373
aF11.2082
aF0.102886
aa(lp2
F10.5008
aF-0.020599
aF10.3276
aF0.0715088
aF10.1266
aF0.148985
aF9.86577
aF0.199798
aF9.68855
aF0.207628
aF9.56214
aF0.2092
aF9.46895
aF0.223094
aF9.48604
aF0.245363
aF9.30795
aF0.26737
aF9.35452
aF0.267234
aF9.48763
aF0.260095
aF9.49483
aF0.246024
aF9.74821
aF0.212765
aF10.0519
aF0.194402
aF10.3423
aF0.179347
aF10.659
aF0.170724
aF10.9275
aF0.145373
aF11.2082
aF0.102886
aF11.488
aF0.073453
aF11.787
aF0.0448915
aa.