(lp0
(lp1
F12.8829
aF0.0538565
aF13.0653
aF0.057139
aF13.0693
aF0.0600358
aF13.2322
aF0.062757
aF13.5399
aF0.05962
aF13.7994
aF0.0695279
aF14.1355
aF0.0870041
aF14.4115
aF0.0994787
aF14.7037
aF0.0982894
aF14.9968
aF0.0999777
aF15.2673
aF0.0986098
aF15.6846
aF0.101065
aF15.8095
aF0.103045
aF16.0216
aF0.108112
aF16.2412
aF0.102708
aF16.467
aF0.0979867
aF16.6916
aF0.0969875
aF16.9012
aF0.0958454
aF17.193
aF0.0790547
aF17.4101
aF0.0909475
aa(lp2
F13.0693
aF0.0600358
aF13.2322
aF0.062757
aF13.5399
aF0.05962
aF13.7994
aF0.0695279
aF14.1355
aF0.0870041
aF14.4115
aF0.0994787
aF14.7037
aF0.0982894
aF14.9968
aF0.0999777
aF15.2673
aF0.0986098
aF15.6846
aF0.101065
aF15.8095
aF0.103045
aF16.0216
aF0.108112
aF16.2412
aF0.102708
aF16.467
aF0.0979867
aF16.6916
aF0.0969875
aF16.9012
aF0.0958454
aF17.193
aF0.0790547
aF17.4101
aF0.0909475
aF17.6336
aF0.0829553
aF17.841
aF0.0879348
aa(lp3
F13.5399
aF0.05962
aF13.7994
aF0.0695279
aF14.1355
aF0.0870041
aF14.4115
aF0.0994787
aF14.7037
aF0.0982894
aF14.9968
aF0.0999777
aF15.2673
aF0.0986098
aF15.6846
aF0.101065
aF15.8095
aF0.103045
aF16.0216
aF0.108112
aF16.2412
aF0.102708
aF16.467
aF0.0979867
aF16.6916
aF0.0969875
aF16.9012
aF0.0958454
aF17.193
aF0.0790547
aF17.4101
aF0.0909475
aF17.6336
aF0.0829553
aF17.841
aF0.0879348
aF17.9323
aF0.108584
aF18.0537
aF0.124475
aa(lp4
F14.1355
aF0.0870041
aF14.4115
aF0.0994787
aF14.7037
aF0.0982894
aF14.9968
aF0.0999777
aF15.2673
aF0.0986098
aF15.6846
aF0.101065
aF15.8095
aF0.103045
aF16.0216
aF0.108112
aF16.2412
aF0.102708
aF16.467
aF0.0979867
aF16.6916
aF0.0969875
aF16.9012
aF0.0958454
aF17.193
aF0.0790547
aF17.4101
aF0.0909475
aF17.6336
aF0.0829553
aF17.841
aF0.0879348
aF17.9323
aF0.108584
aF18.0537
aF0.124475
aF18.176
aF0.138751
aF18.2272
aF0.134297
aa.