(lp0
(lp1
F15.2673
aF0.0986098
aF15.6846
aF0.101065
aF15.8095
aF0.103045
aF16.0216
aF0.108112
aF16.2412
aF0.102708
aF16.467
aF0.0979867
aF16.6916
aF0.0969875
aF16.9012
aF0.0958454
aF17.193
aF0.0790547
aF17.4101
aF0.0909475
aF17.6336
aF0.0829553
aF17.841
aF0.0879348
aF17.9323
aF0.108584
aF18.0537
aF0.124475
aF18.176
aF0.138751
aF18.2272
aF0.134297
aF18.2228
aF0.118765
aF18.2801
aF0.106175
aF18.4686
aF0.0797115
aF18.4567
aF0.0766189
aa(lp2
F15.8095
aF0.103045
aF16.0216
aF0.108112
aF16.2412
aF0.102708
aF16.467
aF0.0979867
aF16.6916
aF0.0969875
aF16.9012
aF0.0958454
aF17.193
aF0.0790547
aF17.4101
aF0.0909475
aF17.6336
aF0.0829553
aF17.841
aF0.0879348
aF17.9323
aF0.108584
aF18.0537
aF0.124475
aF18.176
aF0.138751
aF18.2272
aF0.134297
aF18.2228
aF0.118765
aF18.2801
aF0.106175
aF18.4686
aF0.0797115
aF18.4567
aF0.0766189
aF18.4323
aF0.0229094
aF18.4328
aF-0.057909
aa.