(lp0
(lp1
F14.9336
aF-0.128329
aF15.2214
aF-0.135748
aF15.0852
aF-0.139054
aF14.9689
aF-0.145186
aF14.821
aF-0.153965
aF14.6121
aF-0.171637
aF14.3646
aF-0.194874
aF14.0741
aF-0.19662
aF13.798
aF-0.188681
aF13.5534
aF-0.167548
aF13.3264
aF-0.132369
aF13.1245
aF-0.142473
aF12.8474
aF-0.188779
aF12.5631
aF-0.231019
aF12.2674
aF-0.251482
aF11.9371
aF-0.248947
aF11.6411
aF-0.243723
aF11.3747
aF-0.229254
aF11.1119
aF-0.208692
aF11.0099
aF-0.210829
aa(lp2
F15.0852
aF-0.139054
aF14.9689
aF-0.145186
aF14.821
aF-0.153965
aF14.6121
aF-0.171637
aF14.3646
aF-0.194874
aF14.0741
aF-0.19662
aF13.798
aF-0.188681
aF13.5534
aF-0.167548
aF13.3264
aF-0.132369
aF13.1245
aF-0.142473
aF12.8474
aF-0.188779
aF12.5631
aF-0.231019
aF12.2674
aF-0.251482
aF11.9371
aF-0.248947
aF11.6411
aF-0.243723
aF11.3747
aF-0.229254
aF11.1119
aF-0.208692
aF11.0099
aF-0.210829
aF10.8895
aF-0.1913
aF10.7755
aF-0.147774
aa(lp3
F14.821
aF-0.153965
aF14.6121
aF-0.171637
aF14.3646
aF-0.194874
aF14.0741
aF-0.19662
aF13.798
aF-0.188681
aF13.5534
aF-0.167548
aF13.3264
aF-0.132369
aF13.1245
aF-0.142473
aF12.8474
aF-0.188779
aF12.5631
aF-0.231019
aF12.2674
aF-0.251482
aF11.9371
aF-0.248947
aF11.6411
aF-0.243723
aF11.3747
aF-0.229254
aF11.1119
aF-0.208692
aF11.0099
aF-0.210829
aF10.8895
aF-0.1913
aF10.7755
aF-0.147774
aF10.6567
aF-0.0965997
aF10.5008
aF-0.020599
aa(lp4
F14.3646
aF-0.194874
aF14.0741
aF-0.19662
aF13.798
aF-0.188681
aF13.5534
aF-0.167548
aF13.3264
aF-0.132369
aF13.1245
aF-0.142473
aF12.8474
aF-0.188779
aF12.5631
aF-0.231019
aF12.2674
aF-0.251482
aF11.9371
aF-0.248947
aF11.6411
aF-0.243723
aF11.3747
aF-0.229254
aF11.1119
aF-0.208692
aF11.0099
aF-0.210829
aF10.8895
aF-0.1913
aF10.7755
aF-0.147774
aF10.6567
aF-0.0965997
aF10.5008
aF-0.020599
aF10.3276
aF0.0715088
aF10.1266
aF0.148985
aa(lp5
F13.798
aF-0.188681
aF13.5534
aF-0.167548
aF13.3264
aF-0.132369
aF13.1245
aF-0.142473
aF12.8474
aF-0.188779
aF12.5631
aF-0.231019
aF12.2674
aF-0.251482
aF11.9371
aF-0.248947
aF11.6411
aF-0.243723
aF11.3747
aF-0.229254
aF11.1119
aF-0.208692
aF11.0099
aF-0.210829
aF10.8895
aF-0.1913
aF10.7755
aF-0.147774
aF10.6567
aF-0.0965997
aF10.5008
aF-0.020599
aF10.3276
aF0.0715088
aF10.1266
aF0.148985
aF9.86577
aF0.199798
aF9.68855
aF0.207628
aa.