(lp0
(lp1
F2.46734
aF0.302398
aF2.53285
aF0.385099
aF2.71553
aF0.515041
aF3.18688
aF0.682349
aF3.49358
aF0.872013
aF3.77679
aF0.950579
aF3.7314
aF0.964637
aF3.68216
aF0.936838
aF3.53346
aF0.894579
aF3.35935
aF0.860663
aF3.30967
aF0.814166
aF3.3561
aF0.768188
aF3.27931
aF0.720256
aF3.17576
aF0.642129
aF3.10305
aF0.440164
aF3.14599
aF0.302478
aF3.58447
aF0.105827
aF4.00406
aF-0.121021
aF4.56055
aF-0.362691
aF4.9722
aF-0.594637
aa(lp2
F2.71553
aF0.515041
aF3.18688
aF0.682349
aF3.49358
aF0.872013
aF3.77679
aF0.950579
aF3.7314
aF0.964637
aF3.68216
aF0.936838
aF3.53346
aF0.894579
aF3.35935
aF0.860663
aF3.30967
aF0.814166
aF3.3561
aF0.768188
aF3.27931
aF0.720256
aF3.17576
aF0.642129
aF3.10305
aF0.440164
aF3.14599
aF0.302478
aF3.58447
aF0.105827
aF4.00406
aF-0.121021
aF4.56055
aF-0.362691
aF4.9722
aF-0.594637
aF5.2673
aF-0.784695
aF5.10229
aF-0.913683
aa(lp3
F3.49358
aF0.872013
aF3.77679
aF0.950579
aF3.7314
aF0.964637
aF3.68216
aF0.936838
aF3.53346
aF0.894579
aF3.35935
aF0.860663
aF3.30967
aF0.814166
aF3.3561
aF0.768188
aF3.27931
aF0.720256
aF3.17576
aF0.642129
aF3.10305
aF0.440164
aF3.14599
aF0.302478
aF3.58447
aF0.105827
aF4.00406
aF-0.121021
aF4.56055
aF-0.362691
aF4.9722
aF-0.594637
aF5.2673
aF-0.784695
aF5.10229
aF-0.913683
aF4.69689
aF-0.923005
aF4.3578
aF-0.873319
aa(lp4
F3.7314
aF0.964637
aF3.68216
aF0.936838
aF3.53346
aF0.894579
aF3.35935
aF0.860663
aF3.30967
aF0.814166
aF3.3561
aF0.768188
aF3.27931
aF0.720256
aF3.17576
aF0.642129
aF3.10305
aF0.440164
aF3.14599
aF0.302478
aF3.58447
aF0.105827
aF4.00406
aF-0.121021
aF4.56055
aF-0.362691
aF4.9722
aF-0.594637
aF5.2673
aF-0.784695
aF5.10229
aF-0.913683
aF4.69689
aF-0.923005
aF4.3578
aF-0.873319
aF3.98497
aF-0.855129
aF4.29889
aF-0.990356
aa.