(lp0
(lp1
F0.474685
aF-0.0168602
aF0.555301
aF-0.0167146
aF0.683951
aF-0.0152788
aF0.841829
aF-0.0162589
aF1.02152
aF-0.0157173
aF1.52596
aF-0.00855056
aF1.72934
aF0.0200391
aF1.88158
aF0.076561
aF2.08421
aF0.155785
aF2.29541
aF0.231994
aF2.46734
aF0.302398
aF2.53285
aF0.385099
aF2.71553
aF0.515041
aF3.18688
aF0.682349
aF3.49358
aF0.872013
aF3.77679
aF0.950579
aF3.7314
aF0.964637
aF3.68216
aF0.936838
aF3.53346
aF0.894579
aF3.35935
aF0.860663
aa(lp2
F0.683951
aF-0.0152788
aF0.841829
aF-0.0162589
aF1.02152
aF-0.0157173
aF1.52596
aF-0.00855056
aF1.72934
aF0.0200391
aF1.88158
aF0.076561
aF2.08421
aF0.155785
aF2.29541
aF0.231994
aF2.46734
aF0.302398
aF2.53285
aF0.385099
aF2.71553
aF0.515041
aF3.18688
aF0.682349
aF3.49358
aF0.872013
aF3.77679
aF0.950579
aF3.7314
aF0.964637
aF3.68216
aF0.936838
aF3.53346
aF0.894579
aF3.35935
aF0.860663
aF3.30967
aF0.814166
aF3.3561
aF0.768188
aa(lp3
F1.02152
aF-0.0157173
aF1.52596
aF-0.00855056
aF1.72934
aF0.0200391
aF1.88158
aF0.076561
aF2.08421
aF0.155785
aF2.29541
aF0.231994
aF2.46734
aF0.302398
aF2.53285
aF0.385099
aF2.71553
aF0.515041
aF3.18688
aF0.682349
aF3.49358
aF0.872013
aF3.77679
aF0.950579
aF3.7314
aF0.964637
aF3.68216
aF0.936838
aF3.53346
aF0.894579
aF3.35935
aF0.860663
aF3.30967
aF0.814166
aF3.3561
aF0.768188
aF3.27931
aF0.720256
aF3.17576
aF0.642129
aa.