(lp0
(lp1
F3.27931
aF0.720256
aF3.17576
aF0.642129
aF3.10305
aF0.440164
aF3.14599
aF0.302478
aF3.58447
aF0.105827
aF4.00406
aF-0.121021
aF4.56055
aF-0.362691
aF4.9722
aF-0.594637
aF5.2673
aF-0.784695
aF5.10229
aF-0.913683
aF4.69689
aF-0.923005
aF4.3578
aF-0.873319
aF3.98497
aF-0.855129
aF4.29889
aF-0.990356
aF4.37384
aF-1.07923
aF4.29241
aF-1.16225
aF3.97791
aF-1.19763
aF3.21394
aF-1.07677
aF2.75415
aF-0.917441
aF2.38199
aF-0.755117
aa(lp2
F3.10305
aF0.440164
aF3.14599
aF0.302478
aF3.58447
aF0.105827
aF4.00406
aF-0.121021
aF4.56055
aF-0.362691
aF4.9722
aF-0.594637
aF5.2673
aF-0.784695
aF5.10229
aF-0.913683
aF4.69689
aF-0.923005
aF4.3578
aF-0.873319
aF3.98497
aF-0.855129
aF4.29889
aF-0.990356
aF4.37384
aF-1.07923
aF4.29241
aF-1.16225
aF3.97791
aF-1.19763
aF3.21394
aF-1.07677
aF2.75415
aF-0.917441
aF2.38199
aF-0.755117
aF2.15279
aF-0.456223
aF1.91027
aF-0.205913
aa(lp3
F3.58447
aF0.105827
aF4.00406
aF-0.121021
aF4.56055
aF-0.362691
aF4.9722
aF-0.594637
aF5.2673
aF-0.784695
aF5.10229
aF-0.913683
aF4.69689
aF-0.923005
aF4.3578
aF-0.873319
aF3.98497
aF-0.855129
aF4.29889
aF-0.990356
aF4.37384
aF-1.07923
aF4.29241
aF-1.16225
aF3.97791
aF-1.19763
aF3.21394
aF-1.07677
aF2.75415
aF-0.917441
aF2.38199
aF-0.755117
aF2.15279
aF-0.456223
aF1.91027
aF-0.205913
aF1.76878
aF-0.00521851
aF1.55574
aF0.144628
aa.