(lp0
(lp1
F2.64281
aF0.0016356
aF3.09882
aF0.00447126
aF3.55646
aF0.0047934
aF3.97792
aF0.00286739
aF4.32058
aF0.000656817
aF4.21873
aF0.00761301
aF4.05654
aF0.0119198
aF3.87843
aF0.0142085
aF3.73317
aF0.0205864
aF3.57232
aF0.0242665
aF3.58182
aF0.025956
aF3.75995
aF0.0255443
aF3.98601
aF0.0229663
aF4.07769
aF0.018851
aF4.29488
aF0.0122772
aF4.47101
aF0.00860491
aF4.65887
aF0.00838731
aF4.88559
aF0.00598942
aF5.09035
aF0.0120636
aF5.2671
aF0.0134887
aa(lp2
F3.55646
aF0.0047934
aF3.97792
aF0.00286739
aF4.32058
aF0.000656817
aF4.21873
aF0.00761301
aF4.05654
aF0.0119198
aF3.87843
aF0.0142085
aF3.73317
aF0.0205864
aF3.57232
aF0.0242665
aF3.58182
aF0.025956
aF3.75995
aF0.0255443
aF3.98601
aF0.0229663
aF4.07769
aF0.018851
aF4.29488
aF0.0122772
aF4.47101
aF0.00860491
aF4.65887
aF0.00838731
aF4.88559
aF0.00598942
aF5.09035
aF0.0120636
aF5.2671
aF0.0134887
aF5.49717
aF0.0129934
aF5.68466
aF0.0126693
aa(lp3
F4.32058
aF0.000656817
aF4.21873
aF0.00761301
aF4.05654
aF0.0119198
aF3.87843
aF0.0142085
aF3.73317
aF0.0205864
aF3.57232
aF0.0242665
aF3.58182
aF0.025956
aF3.75995
aF0.0255443
aF3.98601
aF0.0229663
aF4.07769
aF0.018851
aF4.29488
aF0.0122772
aF4.47101
aF0.00860491
aF4.65887
aF0.00838731
aF4.88559
aF0.00598942
aF5.09035
aF0.0120636
aF5.2671
aF0.0134887
aF5.49717
aF0.0129934
aF5.68466
aF0.0126693
aF5.90834
aF0.0107042
aF6.08117
aF0.00703462
aa(lp4
F4.05654
aF0.0119198
aF3.87843
aF0.0142085
aF3.73317
aF0.0205864
aF3.57232
aF0.0242665
aF3.58182
aF0.025956
aF3.75995
aF0.0255443
aF3.98601
aF0.0229663
aF4.07769
aF0.018851
aF4.29488
aF0.0122772
aF4.47101
aF0.00860491
aF4.65887
aF0.00838731
aF4.88559
aF0.00598942
aF5.09035
aF0.0120636
aF5.2671
aF0.0134887
aF5.49717
aF0.0129934
aF5.68466
aF0.0126693
aF5.90834
aF0.0107042
aF6.08117
aF0.00703462
aF6.02441
aF0.00900911
aF5.83409
aF0.0137868
aa(lp5
F3.73317
aF0.0205864
aF3.57232
aF0.0242665
aF3.58182
aF0.025956
aF3.75995
aF0.0255443
aF3.98601
aF0.0229663
aF4.07769
aF0.018851
aF4.29488
aF0.0122772
aF4.47101
aF0.00860491
aF4.65887
aF0.00838731
aF4.88559
aF0.00598942
aF5.09035
aF0.0120636
aF5.2671
aF0.0134887
aF5.49717
aF0.0129934
aF5.68466
aF0.0126693
aF5.90834
aF0.0107042
aF6.08117
aF0.00703462
aF6.02441
aF0.00900911
aF5.83409
aF0.0137868
aF5.69052
aF0.0166571
aF5.54872
aF0.0164282
aa.