(lp0
(lp1
F10.5544
aF0.00356644
aF10.6683
aF0.00304815
aF10.8347
aF0.00455119
aF10.9241
aF0.00999062
aF11.0003
aF0.0229487
aF11.179
aF0.0439474
aF11.432
aF0.0449637
aF11.623
aF0.0523237
aF11.9834
aF0.0560386
aF12.2546
aF0.0688903
aF12.6384
aF0.0652432
aF12.8638
aF0.0734836
aF13.4687
aF0.0667537
aF13.7826
aF0.0661236
aF14.1503
aF0.0662254
aF14.5927
aF0.0682449
aF14.9087
aF0.0659993
aF15.1574
aF0.0666059
aF15.4605
aF0.055744
aF15.5799
aF0.0559202
aa(lp2
F10.8347
aF0.00455119
aF10.9241
aF0.00999062
aF11.0003
aF0.0229487
aF11.179
aF0.0439474
aF11.432
aF0.0449637
aF11.623
aF0.0523237
aF11.9834
aF0.0560386
aF12.2546
aF0.0688903
aF12.6384
aF0.0652432
aF12.8638
aF0.0734836
aF13.4687
aF0.0667537
aF13.7826
aF0.0661236
aF14.1503
aF0.0662254
aF14.5927
aF0.0682449
aF14.9087
aF0.0659993
aF15.1574
aF0.0666059
aF15.4605
aF0.055744
aF15.5799
aF0.0559202
aF15.8278
aF0.0385314
aF15.9173
aF0.0298918
aa.