(lp0
(lp1
F7.22269
aF0.00277734
aF7.33452
aF-0.00258609
aF7.45587
aF-0.00921289
aF7.57019
aF-0.0153258
aF7.68734
aF-0.0219235
aF7.7937
aF-0.024553
aF7.9249
aF-0.0253912
aF8.04087
aF-0.0285876
aF8.17908
aF-0.0327171
aF8.32207
aF-0.041814
aF8.46566
aF-0.0528877
aF8.59403
aF-0.062908
aF8.73425
aF-0.083845
aF8.84341
aF-0.0989663
aF8.98557
aF-0.111626
aF9.09166
aF-0.117364
aF9.18318
aF-0.125072
aF9.38411
aF-0.133697
aF9.44684
aF-0.138029
aF9.5113
aF-0.136347
aa(lp2
F7.45587
aF-0.00921289
aF7.57019
aF-0.0153258
aF7.68734
aF-0.0219235
aF7.7937
aF-0.024553
aF7.9249
aF-0.0253912
aF8.04087
aF-0.0285876
aF8.17908
aF-0.0327171
aF8.32207
aF-0.041814
aF8.46566
aF-0.0528877
aF8.59403
aF-0.062908
aF8.73425
aF-0.083845
aF8.84341
aF-0.0989663
aF8.98557
aF-0.111626
aF9.09166
aF-0.117364
aF9.18318
aF-0.125072
aF9.38411
aF-0.133697
aF9.44684
aF-0.138029
aF9.5113
aF-0.136347
aF9.57152
aF-0.130126
aF9.63334
aF-0.114042
aa(lp3
F7.68734
aF-0.0219235
aF7.7937
aF-0.024553
aF7.9249
aF-0.0253912
aF8.04087
aF-0.0285876
aF8.17908
aF-0.0327171
aF8.32207
aF-0.041814
aF8.46566
aF-0.0528877
aF8.59403
aF-0.062908
aF8.73425
aF-0.083845
aF8.84341
aF-0.0989663
aF8.98557
aF-0.111626
aF9.09166
aF-0.117364
aF9.18318
aF-0.125072
aF9.38411
aF-0.133697
aF9.44684
aF-0.138029
aF9.5113
aF-0.136347
aF9.57152
aF-0.130126
aF9.63334
aF-0.114042
aF9.66903
aF-0.0895092
aF9.75834
aF-0.0664436
aa.