(lp0
(lp1
F0.557005
aF-0.00737763
aF0.741788
aF0.0171599
aF0.952691
aF0.0513518
aF1.17315
aF0.0821476
aF1.50192
aF0.0921543
aF1.80324
aF0.107427
aF2.08757
aF0.108539
aF2.328
aF0.0935039
aF2.33258
aF0.0788647
aF2.34125
aF0.0564699
aF2.40744
aF0.0396304
aF2.67762
aF0.0334637
aF2.77845
aF0.0245274
aF2.89613
aF0.0254421
aF3.07395
aF0.0194208
aF3.2668
aF0.0196071
aF3.51726
aF0.0167307
aF3.8073
aF0.0142586
aF4.08975
aF0.0129322
aF4.40636
aF0.0148536
aa(lp2
F0.952691
aF0.0513518
aF1.17315
aF0.0821476
aF1.50192
aF0.0921543
aF1.80324
aF0.107427
aF2.08757
aF0.108539
aF2.328
aF0.0935039
aF2.33258
aF0.0788647
aF2.34125
aF0.0564699
aF2.40744
aF0.0396304
aF2.67762
aF0.0334637
aF2.77845
aF0.0245274
aF2.89613
aF0.0254421
aF3.07395
aF0.0194208
aF3.2668
aF0.0196071
aF3.51726
aF0.0167307
aF3.8073
aF0.0142586
aF4.08975
aF0.0129322
aF4.40636
aF0.0148536
aF4.73231
aF0.0144332
aF5.03314
aF0.0121796
aa(lp3
F1.50192
aF0.0921543
aF1.80324
aF0.107427
aF2.08757
aF0.108539
aF2.328
aF0.0935039
aF2.33258
aF0.0788647
aF2.34125
aF0.0564699
aF2.40744
aF0.0396304
aF2.67762
aF0.0334637
aF2.77845
aF0.0245274
aF2.89613
aF0.0254421
aF3.07395
aF0.0194208
aF3.2668
aF0.0196071
aF3.51726
aF0.0167307
aF3.8073
aF0.0142586
aF4.08975
aF0.0129322
aF4.40636
aF0.0148536
aF4.73231
aF0.0144332
aF5.03314
aF0.0121796
aF5.38514
aF0.0122669
aF5.71629
aF0.0114507
aa(lp4
F2.08757
aF0.108539
aF2.328
aF0.0935039
aF2.33258
aF0.0788647
aF2.34125
aF0.0564699
aF2.40744
aF0.0396304
aF2.67762
aF0.0334637
aF2.77845
aF0.0245274
aF2.89613
aF0.0254421
aF3.07395
aF0.0194208
aF3.2668
aF0.0196071
aF3.51726
aF0.0167307
aF3.8073
aF0.0142586
aF4.08975
aF0.0129322
aF4.40636
aF0.0148536
aF4.73231
aF0.0144332
aF5.03314
aF0.0121796
aF5.38514
aF0.0122669
aF5.71629
aF0.0114507
aF6.10866
aF0.0129953
aF6.21298
aF0.013033
aa(lp5
F2.33258
aF0.0788647
aF2.34125
aF0.0564699
aF2.40744
aF0.0396304
aF2.67762
aF0.0334637
aF2.77845
aF0.0245274
aF2.89613
aF0.0254421
aF3.07395
aF0.0194208
aF3.2668
aF0.0196071
aF3.51726
aF0.0167307
aF3.8073
aF0.0142586
aF4.08975
aF0.0129322
aF4.40636
aF0.0148536
aF4.73231
aF0.0144332
aF5.03314
aF0.0121796
aF5.38514
aF0.0122669
aF5.71629
aF0.0114507
aF6.10866
aF0.0129953
aF6.21298
aF0.013033
aF6.36936
aF0.0124406
aF6.75437
aF0.00935656
aa(lp6
F2.40744
aF0.0396304
aF2.67762
aF0.0334637
aF2.77845
aF0.0245274
aF2.89613
aF0.0254421
aF3.07395
aF0.0194208
aF3.2668
aF0.0196071
aF3.51726
aF0.0167307
aF3.8073
aF0.0142586
aF4.08975
aF0.0129322
aF4.40636
aF0.0148536
aF4.73231
aF0.0144332
aF5.03314
aF0.0121796
aF5.38514
aF0.0122669
aF5.71629
aF0.0114507
aF6.10866
aF0.0129953
aF6.21298
aF0.013033
aF6.36936
aF0.0124406
aF6.75437
aF0.00935656
aF6.83087
aF0.00917039
aF6.99458
aF0.0102015
aa.