(lp0
(lp1
F5.71629
aF0.0114507
aF6.10866
aF0.0129953
aF6.21298
aF0.013033
aF6.36936
aF0.0124406
aF6.75437
aF0.00935656
aF6.83087
aF0.00917039
aF6.99458
aF0.0102015
aF7.2412
aF0.013308
aF7.45442
aF0.016627
aF7.66793
aF0.0190197
aF7.89551
aF0.016104
aF8.1392
aF0.0092057
aF8.37802
aF0.00461221
aF8.6043
aF0.00338403
aF8.85136
aF0.00146374
aF9.13254
aF0.0038156
aF9.29407
aF0.00253219
aF9.5284
aF0.0075906
aF9.72075
aF0.00542511
aF9.93976
aF0.0081149
aa(lp2
F6.21298
aF0.013033
aF6.36936
aF0.0124406
aF6.75437
aF0.00935656
aF6.83087
aF0.00917039
aF6.99458
aF0.0102015
aF7.2412
aF0.013308
aF7.45442
aF0.016627
aF7.66793
aF0.0190197
aF7.89551
aF0.016104
aF8.1392
aF0.0092057
aF8.37802
aF0.00461221
aF8.6043
aF0.00338403
aF8.85136
aF0.00146374
aF9.13254
aF0.0038156
aF9.29407
aF0.00253219
aF9.5284
aF0.0075906
aF9.72075
aF0.00542511
aF9.93976
aF0.0081149
aF10.1566
aF0.0105223
aF10.5297
aF0.00858303
aa(lp3
F6.75437
aF0.00935656
aF6.83087
aF0.00917039
aF6.99458
aF0.0102015
aF7.2412
aF0.013308
aF7.45442
aF0.016627
aF7.66793
aF0.0190197
aF7.89551
aF0.016104
aF8.1392
aF0.0092057
aF8.37802
aF0.00461221
aF8.6043
aF0.00338403
aF8.85136
aF0.00146374
aF9.13254
aF0.0038156
aF9.29407
aF0.00253219
aF9.5284
aF0.0075906
aF9.72075
aF0.00542511
aF9.93976
aF0.0081149
aF10.1566
aF0.0105223
aF10.5297
aF0.00858303
aF10.7325
aF0.00939829
aF10.8495
aF-0.00857814
aa(lp4
F6.99458
aF0.0102015
aF7.2412
aF0.013308
aF7.45442
aF0.016627
aF7.66793
aF0.0190197
aF7.89551
aF0.016104
aF8.1392
aF0.0092057
aF8.37802
aF0.00461221
aF8.6043
aF0.00338403
aF8.85136
aF0.00146374
aF9.13254
aF0.0038156
aF9.29407
aF0.00253219
aF9.5284
aF0.0075906
aF9.72075
aF0.00542511
aF9.93976
aF0.0081149
aF10.1566
aF0.0105223
aF10.5297
aF0.00858303
aF10.7325
aF0.00939829
aF10.8495
aF-0.00857814
aF11.0025
aF-0.020935
aF11.1644
aF-0.0208507
aa(lp5
F7.45442
aF0.016627
aF7.66793
aF0.0190197
aF7.89551
aF0.016104
aF8.1392
aF0.0092057
aF8.37802
aF0.00461221
aF8.6043
aF0.00338403
aF8.85136
aF0.00146374
aF9.13254
aF0.0038156
aF9.29407
aF0.00253219
aF9.5284
aF0.0075906
aF9.72075
aF0.00542511
aF9.93976
aF0.0081149
aF10.1566
aF0.0105223
aF10.5297
aF0.00858303
aF10.7325
aF0.00939829
aF10.8495
aF-0.00857814
aF11.0025
aF-0.020935
aF11.1644
aF-0.0208507
aF11.3065
aF-0.0187717
aF11.3902
aF0.0176103
aa.