(lp0
(lp1
F14.9325
aF0.0318662
aF15.0662
aF0.0352271
aF15.2173
aF0.024378
aF15.3278
aF0.0331626
aF15.5262
aF0.0239478
aF15.5798
aF0.0398495
aF15.7608
aF0.0432365
aF15.7627
aF0.0762243
aF16.0346
aF0.0893743
aF16.1834
aF0.0993512
aF16.4286
aF0.112407
aF16.816
aF0.0640118
aF16.9616
aF0.0529465
aF17.1513
aF0.0319117
aF17.3636
aF0.0203002
aF17.6374
aF0.0126575
aF17.7026
aF0.0131349
aF17.6928
aF0.0154537
aF17.6385
aF0.0183363
aF17.6965
aF0.0119481
aa(lp2
F15.2173
aF0.024378
aF15.3278
aF0.0331626
aF15.5262
aF0.0239478
aF15.5798
aF0.0398495
aF15.7608
aF0.0432365
aF15.7627
aF0.0762243
aF16.0346
aF0.0893743
aF16.1834
aF0.0993512
aF16.4286
aF0.112407
aF16.816
aF0.0640118
aF16.9616
aF0.0529465
aF17.1513
aF0.0319117
aF17.3636
aF0.0203002
aF17.6374
aF0.0126575
aF17.7026
aF0.0131349
aF17.6928
aF0.0154537
aF17.6385
aF0.0183363
aF17.6965
aF0.0119481
aF17.6688
aF0.0157653
aF17.7024
aF0.00234875
aa.