(lp0
(lp1
F17.6688
aF0.0157653
aF17.7024
aF0.00234875
aF17.7496
aF-0.00477131
aF17.8894
aF-0.0179815
aF18.0348
aF-0.0214558
aF18.0521
aF-0.0192721
aF18.1512
aF-0.0219469
aF18.3221
aF-0.0424841
aF18.4421
aF-0.0352277
aF18.4519
aF-0.0398213
aF18.5141
aF-0.0545195
aF18.5437
aF-0.0460785
aF18.5606
aF-0.0645314
aF18.591
aF-0.0507337
aF18.5708
aF-0.0440398
aF18.6041
aF-0.0449282
aF18.6206
aF-0.0500105
aF18.6414
aF-0.0417286
aF18.6706
aF-0.0339726
aF18.6739
aF-0.0142602
aa(lp2
F17.7496
aF-0.00477131
aF17.8894
aF-0.0179815
aF18.0348
aF-0.0214558
aF18.0521
aF-0.0192721
aF18.1512
aF-0.0219469
aF18.3221
aF-0.0424841
aF18.4421
aF-0.0352277
aF18.4519
aF-0.0398213
aF18.5141
aF-0.0545195
aF18.5437
aF-0.0460785
aF18.5606
aF-0.0645314
aF18.591
aF-0.0507337
aF18.5708
aF-0.0440398
aF18.6041
aF-0.0449282
aF18.6206
aF-0.0500105
aF18.6414
aF-0.0417286
aF18.6706
aF-0.0339726
aF18.6739
aF-0.0142602
aF18.7336
aF0.00314489
aF18.7833
aF0.0475195
aa(lp3
F18.0348
aF-0.0214558
aF18.0521
aF-0.0192721
aF18.1512
aF-0.0219469
aF18.3221
aF-0.0424841
aF18.4421
aF-0.0352277
aF18.4519
aF-0.0398213
aF18.5141
aF-0.0545195
aF18.5437
aF-0.0460785
aF18.5606
aF-0.0645314
aF18.591
aF-0.0507337
aF18.5708
aF-0.0440398
aF18.6041
aF-0.0449282
aF18.6206
aF-0.0500105
aF18.6414
aF-0.0417286
aF18.6706
aF-0.0339726
aF18.6739
aF-0.0142602
aF18.7336
aF0.00314489
aF18.7833
aF0.0475195
aF18.7869
aF0.056498
aF18.8769
aF0.061148
aa(lp4
F18.1512
aF-0.0219469
aF18.3221
aF-0.0424841
aF18.4421
aF-0.0352277
aF18.4519
aF-0.0398213
aF18.5141
aF-0.0545195
aF18.5437
aF-0.0460785
aF18.5606
aF-0.0645314
aF18.591
aF-0.0507337
aF18.5708
aF-0.0440398
aF18.6041
aF-0.0449282
aF18.6206
aF-0.0500105
aF18.6414
aF-0.0417286
aF18.6706
aF-0.0339726
aF18.6739
aF-0.0142602
aF18.7336
aF0.00314489
aF18.7833
aF0.0475195
aF18.7869
aF0.056498
aF18.8769
aF0.061148
aF18.9297
aF0.0071908
aF18.841
aF-0.0301858
aa(lp5
F18.4421
aF-0.0352277
aF18.4519
aF-0.0398213
aF18.5141
aF-0.0545195
aF18.5437
aF-0.0460785
aF18.5606
aF-0.0645314
aF18.591
aF-0.0507337
aF18.5708
aF-0.0440398
aF18.6041
aF-0.0449282
aF18.6206
aF-0.0500105
aF18.6414
aF-0.0417286
aF18.6706
aF-0.0339726
aF18.6739
aF-0.0142602
aF18.7336
aF0.00314489
aF18.7833
aF0.0475195
aF18.7869
aF0.056498
aF18.8769
aF0.061148
aF18.9297
aF0.0071908
aF18.841
aF-0.0301858
aF18.8082
aF-0.0610864
aF18.7606
aF-0.046861
aa(lp6
F18.5141
aF-0.0545195
aF18.5437
aF-0.0460785
aF18.5606
aF-0.0645314
aF18.591
aF-0.0507337
aF18.5708
aF-0.0440398
aF18.6041
aF-0.0449282
aF18.6206
aF-0.0500105
aF18.6414
aF-0.0417286
aF18.6706
aF-0.0339726
aF18.6739
aF-0.0142602
aF18.7336
aF0.00314489
aF18.7833
aF0.0475195
aF18.7869
aF0.056498
aF18.8769
aF0.061148
aF18.9297
aF0.0071908
aF18.841
aF-0.0301858
aF18.8082
aF-0.0610864
aF18.7606
aF-0.046861
aF18.6909
aF-0.0208586
aF18.6387
aF0.0148863
aa(lp7
F18.5606
aF-0.0645314
aF18.591
aF-0.0507337
aF18.5708
aF-0.0440398
aF18.6041
aF-0.0449282
aF18.6206
aF-0.0500105
aF18.6414
aF-0.0417286
aF18.6706
aF-0.0339726
aF18.6739
aF-0.0142602
aF18.7336
aF0.00314489
aF18.7833
aF0.0475195
aF18.7869
aF0.056498
aF18.8769
aF0.061148
aF18.9297
aF0.0071908
aF18.841
aF-0.0301858
aF18.8082
aF-0.0610864
aF18.7606
aF-0.046861
aF18.6909
aF-0.0208586
aF18.6387
aF0.0148863
aF18.6178
aF0.042664
aF18.6972
aF0.043383
aa.