(lp0
(lp1
F0.0
aF0.0
aF0.442407
aF0.0106934
aF0.530112
aF0.0108162
aF0.629979
aF0.0108188
aF0.698237
aF0.0105678
aF0.729187
aF0.0106646
aF0.7274
aF0.0101946
aF0.724758
aF0.00857915
aF0.71994
aF0.00614808
aF0.69462
aF-0.00302979
aF0.63428
aF-0.0201196
aF0.535079
aF-0.0386535
aF0.390548
aF-0.0564162
aF0.660432
aF-0.0760507
aF0.446355
aF-0.0955829
aF0.240119
aF-0.109371
aF0.154687
aF-0.10609
aF0.316397
aF-0.068788
aF0.378974
aF-0.0344566
aF0.557005
aF-0.00737763
aa(lp2
F0.530112
aF0.0108162
aF0.629979
aF0.0108188
aF0.698237
aF0.0105678
aF0.729187
aF0.0106646
aF0.7274
aF0.0101946
aF0.724758
aF0.00857915
aF0.71994
aF0.00614808
aF0.69462
aF-0.00302979
aF0.63428
aF-0.0201196
aF0.535079
aF-0.0386535
aF0.390548
aF-0.0564162
aF0.660432
aF-0.0760507
aF0.446355
aF-0.0955829
aF0.240119
aF-0.109371
aF0.154687
aF-0.10609
aF0.316397
aF-0.068788
aF0.378974
aF-0.0344566
aF0.557005
aF-0.00737763
aF0.741788
aF0.0171599
aF0.952691
aF0.0513518
aa.