(lp0
(lp1
F0.778822
aF-0.0128282
aF1.03408
aF-0.0132526
aF0.991719
aF-0.0183789
aF0.934596
aF-0.0228624
aF0.809668
aF-0.0208641
aF0.601554
aF-0.0129701
aF0.446757
aF-0.010058
aF0.437363
aF-0.00837596
aF0.579294
aF-0.00456414
aF0.790479
aF-0.011482
aF1.01163
aF0.00809016
aF1.27809
aF-0.0334169
aF1.5813
aF-0.00110415
aF1.94224
aF-0.00548438
aF2.37443
aF-0.00603211
aF2.88119
aF-0.00213875
aF3.48401
aF0.00666768
aF4.16079
aF-0.00482457
aF4.45843
aF-0.0136169
aF4.98441
aF-0.0156096
aa(lp2
F0.991719
aF-0.0183789
aF0.934596
aF-0.0228624
aF0.809668
aF-0.0208641
aF0.601554
aF-0.0129701
aF0.446757
aF-0.010058
aF0.437363
aF-0.00837596
aF0.579294
aF-0.00456414
aF0.790479
aF-0.011482
aF1.01163
aF0.00809016
aF1.27809
aF-0.0334169
aF1.5813
aF-0.00110415
aF1.94224
aF-0.00548438
aF2.37443
aF-0.00603211
aF2.88119
aF-0.00213875
aF3.48401
aF0.00666768
aF4.16079
aF-0.00482457
aF4.45843
aF-0.0136169
aF4.98441
aF-0.0156096
aF5.78805
aF-0.00363496
aF6.52965
aF0.0735949
aa(lp3
F0.809668
aF-0.0208641
aF0.601554
aF-0.0129701
aF0.446757
aF-0.010058
aF0.437363
aF-0.00837596
aF0.579294
aF-0.00456414
aF0.790479
aF-0.011482
aF1.01163
aF0.00809016
aF1.27809
aF-0.0334169
aF1.5813
aF-0.00110415
aF1.94224
aF-0.00548438
aF2.37443
aF-0.00603211
aF2.88119
aF-0.00213875
aF3.48401
aF0.00666768
aF4.16079
aF-0.00482457
aF4.45843
aF-0.0136169
aF4.98441
aF-0.0156096
aF5.78805
aF-0.00363496
aF6.52965
aF0.0735949
aF6.17221
aF-0.00322754
aF5.52411
aF0.0391933
aa.