(lp0
(lp1
F4.16079
aF-0.00482457
aF4.45843
aF-0.0136169
aF4.98441
aF-0.0156096
aF5.78805
aF-0.00363496
aF6.52965
aF0.0735949
aF6.17221
aF-0.00322754
aF5.52411
aF0.0391933
aF4.44718
aF-0.0142372
aF3.55174
aF0.0100572
aF2.84708
aF0.00904248
aF2.78435
aF-0.0451064
aF2.18089
aF-0.0313475
aF2.03195
aF-0.0107533
aF1.80154
aF-0.00695205
aF1.59434
aF-0.00574964
aF1.40306
aF-0.00822984
aF1.22671
aF-0.00782717
aF0.936973
aF-0.00760802
aF0.746525
aF-0.00764513
aF0.617229
aF-0.00802603
aa(lp2
F4.98441
aF-0.0156096
aF5.78805
aF-0.00363496
aF6.52965
aF0.0735949
aF6.17221
aF-0.00322754
aF5.52411
aF0.0391933
aF4.44718
aF-0.0142372
aF3.55174
aF0.0100572
aF2.84708
aF0.00904248
aF2.78435
aF-0.0451064
aF2.18089
aF-0.0313475
aF2.03195
aF-0.0107533
aF1.80154
aF-0.00695205
aF1.59434
aF-0.00574964
aF1.40306
aF-0.00822984
aF1.22671
aF-0.00782717
aF0.936973
aF-0.00760802
aF0.746525
aF-0.00764513
aF0.617229
aF-0.00802603
aF0.495019
aF-0.00642663
aF0.37849
aF-0.00436887
aa(lp3
F6.52965
aF0.0735949
aF6.17221
aF-0.00322754
aF5.52411
aF0.0391933
aF4.44718
aF-0.0142372
aF3.55174
aF0.0100572
aF2.84708
aF0.00904248
aF2.78435
aF-0.0451064
aF2.18089
aF-0.0313475
aF2.03195
aF-0.0107533
aF1.80154
aF-0.00695205
aF1.59434
aF-0.00574964
aF1.40306
aF-0.00822984
aF1.22671
aF-0.00782717
aF0.936973
aF-0.00760802
aF0.746525
aF-0.00764513
aF0.617229
aF-0.00802603
aF0.495019
aF-0.00642663
aF0.37849
aF-0.00436887
aF0.268755
aF-0.00961402
aF0.189286
aF-0.00778903
aa(lp4
F5.52411
aF0.0391933
aF4.44718
aF-0.0142372
aF3.55174
aF0.0100572
aF2.84708
aF0.00904248
aF2.78435
aF-0.0451064
aF2.18089
aF-0.0313475
aF2.03195
aF-0.0107533
aF1.80154
aF-0.00695205
aF1.59434
aF-0.00574964
aF1.40306
aF-0.00822984
aF1.22671
aF-0.00782717
aF0.936973
aF-0.00760802
aF0.746525
aF-0.00764513
aF0.617229
aF-0.00802603
aF0.495019
aF-0.00642663
aF0.37849
aF-0.00436887
aF0.268755
aF-0.00961402
aF0.189286
aF-0.00778903
aF0.167051
aF-0.00794848
aF0.196615
aF-0.00833678
aa.