(lp0
(lp1
F11.0287
aF0.0282771
aF10.7194
aF0.0321293
aF10.3757
aF0.0180953
aF10.0429
aF0.0243408
aF9.76203
aF0.0196518
aF9.42669
aF0.0101169
aF9.13863
aF0.00163169
aF8.79858
aF0.00560046
aF8.54983
aF0.00558231
aF8.20857
aF0.00266146
aF7.90912
aF0.00588932
aF7.27533
aF0.0069654
aF6.87902
aF0.00846058
aF6.44137
aF0.0102876
aF6.12191
aF0.0110187
aF5.60738
aF0.011636
aF4.94938
aF0.0116977
aF4.3102
aF0.0117555
aF3.67718
aF0.0115406
aF3.05108
aF0.011358
aa(lp2
F10.3757
aF0.0180953
aF10.0429
aF0.0243408
aF9.76203
aF0.0196518
aF9.42669
aF0.0101169
aF9.13863
aF0.00163169
aF8.79858
aF0.00560046
aF8.54983
aF0.00558231
aF8.20857
aF0.00266146
aF7.90912
aF0.00588932
aF7.27533
aF0.0069654
aF6.87902
aF0.00846058
aF6.44137
aF0.0102876
aF6.12191
aF0.0110187
aF5.60738
aF0.011636
aF4.94938
aF0.0116977
aF4.3102
aF0.0117555
aF3.67718
aF0.0115406
aF3.05108
aF0.011358
aF2.43139
aF0.0114736
aF1.81935
aF0.0115645
aa(lp3
F9.76203
aF0.0196518
aF9.42669
aF0.0101169
aF9.13863
aF0.00163169
aF8.79858
aF0.00560046
aF8.54983
aF0.00558231
aF8.20857
aF0.00266146
aF7.90912
aF0.00588932
aF7.27533
aF0.0069654
aF6.87902
aF0.00846058
aF6.44137
aF0.0102876
aF6.12191
aF0.0110187
aF5.60738
aF0.011636
aF4.94938
aF0.0116977
aF4.3102
aF0.0117555
aF3.67718
aF0.0115406
aF3.05108
aF0.011358
aF2.43139
aF0.0114736
aF1.81935
aF0.0115645
aF1.21396
aF0.0111971
aF0.613812
aF0.0115268
aa.