(lp0
(lp1
F8.59788
aF-0.0189188
aF8.52849
aF-0.0230815
aF8.47989
aF-0.0247361
aF8.4316
aF-0.022748
aF8.36258
aF-0.0191215
aF8.2773
aF-0.0112119
aF8.1991
aF0.00715929
aF8.15562
aF0.0366783
aF8.08521
aF0.0665208
aF8.03954
aF0.092537
aF7.98665
aF0.0983014
aF7.99904
aF0.100184
aF7.9782
aF0.098867
aF7.91668
aF0.088999
aF7.90742
aF0.075337
aF7.90387
aF0.0534369
aF7.93719
aF0.0357165
aF8.01379
aF-0.000883144
aF8.10003
aF-0.0443108
aF8.21208
aF-0.0727224
aa(lp2
F8.47989
aF-0.0247361
aF8.4316
aF-0.022748
aF8.36258
aF-0.0191215
aF8.2773
aF-0.0112119
aF8.1991
aF0.00715929
aF8.15562
aF0.0366783
aF8.08521
aF0.0665208
aF8.03954
aF0.092537
aF7.98665
aF0.0983014
aF7.99904
aF0.100184
aF7.9782
aF0.098867
aF7.91668
aF0.088999
aF7.90742
aF0.075337
aF7.90387
aF0.0534369
aF7.93719
aF0.0357165
aF8.01379
aF-0.000883144
aF8.10003
aF-0.0443108
aF8.21208
aF-0.0727224
aF8.322
aF-0.0988129
aF8.43922
aF-0.112165
aa(lp3
F8.36258
aF-0.0191215
aF8.2773
aF-0.0112119
aF8.1991
aF0.00715929
aF8.15562
aF0.0366783
aF8.08521
aF0.0665208
aF8.03954
aF0.092537
aF7.98665
aF0.0983014
aF7.99904
aF0.100184
aF7.9782
aF0.098867
aF7.91668
aF0.088999
aF7.90742
aF0.075337
aF7.90387
aF0.0534369
aF7.93719
aF0.0357165
aF8.01379
aF-0.000883144
aF8.10003
aF-0.0443108
aF8.21208
aF-0.0727224
aF8.322
aF-0.0988129
aF8.43922
aF-0.112165
aF8.54048
aF-0.11502
aF8.64202
aF-0.123383
aa(lp4
F8.1991
aF0.00715929
aF8.15562
aF0.0366783
aF8.08521
aF0.0665208
aF8.03954
aF0.092537
aF7.98665
aF0.0983014
aF7.99904
aF0.100184
aF7.9782
aF0.098867
aF7.91668
aF0.088999
aF7.90742
aF0.075337
aF7.90387
aF0.0534369
aF7.93719
aF0.0357165
aF8.01379
aF-0.000883144
aF8.10003
aF-0.0443108
aF8.21208
aF-0.0727224
aF8.322
aF-0.0988129
aF8.43922
aF-0.112165
aF8.54048
aF-0.11502
aF8.64202
aF-0.123383
aF8.72033
aF-0.137919
aF8.72754
aF-0.142326
aa(lp5
F8.08521
aF0.0665208
aF8.03954
aF0.092537
aF7.98665
aF0.0983014
aF7.99904
aF0.100184
aF7.9782
aF0.098867
aF7.91668
aF0.088999
aF7.90742
aF0.075337
aF7.90387
aF0.0534369
aF7.93719
aF0.0357165
aF8.01379
aF-0.000883144
aF8.10003
aF-0.0443108
aF8.21208
aF-0.0727224
aF8.322
aF-0.0988129
aF8.43922
aF-0.112165
aF8.54048
aF-0.11502
aF8.64202
aF-0.123383
aF8.72033
aF-0.137919
aF8.72754
aF-0.142326
aF8.83805
aF-0.141836
aF8.95578
aF-0.142324
aa.