(lp0
(lp1
F7.59028
aF0.0386206
aF7.56985
aF0.0581202
aF7.52943
aF0.0890073
aF7.49689
aF0.12678
aF7.46017
aF0.142903
aF7.40244
aF0.147382
aF7.31791
aF0.167531
aF7.28161
aF0.183138
aF7.26827
aF0.187245
aF7.27291
aF0.184402
aF7.36794
aF0.175085
aF7.46676
aF0.164653
aF7.59415
aF0.138755
aF7.73399
aF0.127568
aF7.93932
aF0.117303
aF7.95554
aF0.11658
aF7.98553
aF0.132364
aF7.96279
aF0.143055
aF8.00758
aF0.143893
aF8.05634
aF0.142424
aa(lp2
F7.52943
aF0.0890073
aF7.49689
aF0.12678
aF7.46017
aF0.142903
aF7.40244
aF0.147382
aF7.31791
aF0.167531
aF7.28161
aF0.183138
aF7.26827
aF0.187245
aF7.27291
aF0.184402
aF7.36794
aF0.175085
aF7.46676
aF0.164653
aF7.59415
aF0.138755
aF7.73399
aF0.127568
aF7.93932
aF0.117303
aF7.95554
aF0.11658
aF7.98553
aF0.132364
aF7.96279
aF0.143055
aF8.00758
aF0.143893
aF8.05634
aF0.142424
aF8.14157
aF0.143286
aF8.24288
aF0.14122
aa.