(lp0
(lp1
F9.81439
aF-0.0853674
aF9.55067
aF-0.0821523
aF9.40343
aF-0.0811652
aF9.21983
aF-0.0890151
aF9.08027
aF-0.102156
aF8.91989
aF-0.136077
aF8.73858
aF-0.146205
aF8.59429
aF-0.149066
aF8.45505
aF-0.151852
aF8.3317
aF-0.191485
aF8.20779
aF-0.234338
aF8.08745
aF-0.239548
aF7.97766
aF-0.222349
aF7.87956
aF-0.185965
aF7.79993
aF-0.176608
aF7.82117
aF-0.171665
aF7.75502
aF-0.162638
aF7.72357
aF-0.160815
aF7.69838
aF-0.156306
aF7.66759
aF-0.15558
aa(lp2
F9.40343
aF-0.0811652
aF9.21983
aF-0.0890151
aF9.08027
aF-0.102156
aF8.91989
aF-0.136077
aF8.73858
aF-0.146205
aF8.59429
aF-0.149066
aF8.45505
aF-0.151852
aF8.3317
aF-0.191485
aF8.20779
aF-0.234338
aF8.08745
aF-0.239548
aF7.97766
aF-0.222349
aF7.87956
aF-0.185965
aF7.79993
aF-0.176608
aF7.82117
aF-0.171665
aF7.75502
aF-0.162638
aF7.72357
aF-0.160815
aF7.69838
aF-0.156306
aF7.66759
aF-0.15558
aF7.63565
aF-0.153993
aF7.61426
aF-0.155959
aa(lp3
F9.08027
aF-0.102156
aF8.91989
aF-0.136077
aF8.73858
aF-0.146205
aF8.59429
aF-0.149066
aF8.45505
aF-0.151852
aF8.3317
aF-0.191485
aF8.20779
aF-0.234338
aF8.08745
aF-0.239548
aF7.97766
aF-0.222349
aF7.87956
aF-0.185965
aF7.79993
aF-0.176608
aF7.82117
aF-0.171665
aF7.75502
aF-0.162638
aF7.72357
aF-0.160815
aF7.69838
aF-0.156306
aF7.66759
aF-0.15558
aF7.63565
aF-0.153993
aF7.61426
aF-0.155959
aF7.60005
aF-0.148366
aF7.58743
aF-0.130221
aa(lp4
F8.73858
aF-0.146205
aF8.59429
aF-0.149066
aF8.45505
aF-0.151852
aF8.3317
aF-0.191485
aF8.20779
aF-0.234338
aF8.08745
aF-0.239548
aF7.97766
aF-0.222349
aF7.87956
aF-0.185965
aF7.79993
aF-0.176608
aF7.82117
aF-0.171665
aF7.75502
aF-0.162638
aF7.72357
aF-0.160815
aF7.69838
aF-0.156306
aF7.66759
aF-0.15558
aF7.63565
aF-0.153993
aF7.61426
aF-0.155959
aF7.60005
aF-0.148366
aF7.58743
aF-0.130221
aF7.59651
aF-0.117424
aF7.60019
aF-0.117179
aa(lp5
F8.45505
aF-0.151852
aF8.3317
aF-0.191485
aF8.20779
aF-0.234338
aF8.08745
aF-0.239548
aF7.97766
aF-0.222349
aF7.87956
aF-0.185965
aF7.79993
aF-0.176608
aF7.82117
aF-0.171665
aF7.75502
aF-0.162638
aF7.72357
aF-0.160815
aF7.69838
aF-0.156306
aF7.66759
aF-0.15558
aF7.63565
aF-0.153993
aF7.61426
aF-0.155959
aF7.60005
aF-0.148366
aF7.58743
aF-0.130221
aF7.59651
aF-0.117424
aF7.60019
aF-0.117179
aF7.60449
aF-0.110589
aF7.60097
aF-0.105925
aa.