(lp0
(lp1
F11.4309
aF0.0351295
aF11.4971
aF0.0325136
aF11.5608
aF0.0254796
aF11.7421
aF0.0211855
aF11.851
aF0.0230903
aF12.0151
aF0.0258151
aF12.2048
aF0.0350481
aF12.3735
aF0.0362986
aF12.5805
aF0.0377994
aF12.7912
aF0.0307825
aF12.9809
aF0.0299327
aF13.1896
aF0.0323399
aF13.4147
aF0.0340287
aF13.645
aF0.0335076
aF13.8395
aF0.0293794
aF14.0874
aF0.0216132
aF14.2923
aF0.0196229
aF14.5415
aF0.0247912
aF14.4825
aF0.0168317
aF14.4226
aF0.0221029
aa(lp2
F11.5608
aF0.0254796
aF11.7421
aF0.0211855
aF11.851
aF0.0230903
aF12.0151
aF0.0258151
aF12.2048
aF0.0350481
aF12.3735
aF0.0362986
aF12.5805
aF0.0377994
aF12.7912
aF0.0307825
aF12.9809
aF0.0299327
aF13.1896
aF0.0323399
aF13.4147
aF0.0340287
aF13.645
aF0.0335076
aF13.8395
aF0.0293794
aF14.0874
aF0.0216132
aF14.2923
aF0.0196229
aF14.5415
aF0.0247912
aF14.4825
aF0.0168317
aF14.4226
aF0.0221029
aF14.3999
aF0.022847
aF14.2976
aF0.0262871
aa(lp3
F11.851
aF0.0230903
aF12.0151
aF0.0258151
aF12.2048
aF0.0350481
aF12.3735
aF0.0362986
aF12.5805
aF0.0377994
aF12.7912
aF0.0307825
aF12.9809
aF0.0299327
aF13.1896
aF0.0323399
aF13.4147
aF0.0340287
aF13.645
aF0.0335076
aF13.8395
aF0.0293794
aF14.0874
aF0.0216132
aF14.2923
aF0.0196229
aF14.5415
aF0.0247912
aF14.4825
aF0.0168317
aF14.4226
aF0.0221029
aF14.3999
aF0.022847
aF14.2976
aF0.0262871
aF14.392
aF0.0163777
aF14.5275
aF0.024882
aa(lp4
F12.2048
aF0.0350481
aF12.3735
aF0.0362986
aF12.5805
aF0.0377994
aF12.7912
aF0.0307825
aF12.9809
aF0.0299327
aF13.1896
aF0.0323399
aF13.4147
aF0.0340287
aF13.645
aF0.0335076
aF13.8395
aF0.0293794
aF14.0874
aF0.0216132
aF14.2923
aF0.0196229
aF14.5415
aF0.0247912
aF14.4825
aF0.0168317
aF14.4226
aF0.0221029
aF14.3999
aF0.022847
aF14.2976
aF0.0262871
aF14.392
aF0.0163777
aF14.5275
aF0.024882
aF14.6632
aF0.0263001
aF14.8316
aF0.0084495
aa(lp5
F12.5805
aF0.0377994
aF12.7912
aF0.0307825
aF12.9809
aF0.0299327
aF13.1896
aF0.0323399
aF13.4147
aF0.0340287
aF13.645
aF0.0335076
aF13.8395
aF0.0293794
aF14.0874
aF0.0216132
aF14.2923
aF0.0196229
aF14.5415
aF0.0247912
aF14.4825
aF0.0168317
aF14.4226
aF0.0221029
aF14.3999
aF0.022847
aF14.2976
aF0.0262871
aF14.392
aF0.0163777
aF14.5275
aF0.024882
aF14.6632
aF0.0263001
aF14.8316
aF0.0084495
aF14.929
aF0.023635
aF15.084
aF0.0127464
aa(lp6
F12.9809
aF0.0299327
aF13.1896
aF0.0323399
aF13.4147
aF0.0340287
aF13.645
aF0.0335076
aF13.8395
aF0.0293794
aF14.0874
aF0.0216132
aF14.2923
aF0.0196229
aF14.5415
aF0.0247912
aF14.4825
aF0.0168317
aF14.4226
aF0.0221029
aF14.3999
aF0.022847
aF14.2976
aF0.0262871
aF14.392
aF0.0163777
aF14.5275
aF0.024882
aF14.6632
aF0.0263001
aF14.8316
aF0.0084495
aF14.929
aF0.023635
aF15.084
aF0.0127464
aF15.196
aF0.0117832
aF15.39
aF-0.00641364
aa(lp7
F13.4147
aF0.0340287
aF13.645
aF0.0335076
aF13.8395
aF0.0293794
aF14.0874
aF0.0216132
aF14.2923
aF0.0196229
aF14.5415
aF0.0247912
aF14.4825
aF0.0168317
aF14.4226
aF0.0221029
aF14.3999
aF0.022847
aF14.2976
aF0.0262871
aF14.392
aF0.0163777
aF14.5275
aF0.024882
aF14.6632
aF0.0263001
aF14.8316
aF0.0084495
aF14.929
aF0.023635
aF15.084
aF0.0127464
aF15.196
aF0.0117832
aF15.39
aF-0.00641364
aF15.5068
aF0.00548671
aF15.7167
aF0.0152416
aa.