(lp0
(lp1
F14.4825
aF0.0168317
aF14.4226
aF0.0221029
aF14.3999
aF0.022847
aF14.2976
aF0.0262871
aF14.392
aF0.0163777
aF14.5275
aF0.024882
aF14.6632
aF0.0263001
aF14.8316
aF0.0084495
aF14.929
aF0.023635
aF15.084
aF0.0127464
aF15.196
aF0.0117832
aF15.39
aF-0.00641364
aF15.5068
aF0.00548671
aF15.7167
aF0.0152416
aF15.8251
aF0.0226349
aF15.939
aF0.0280262
aF16.1623
aF0.0311932
aF16.1768
aF0.0340438
aF16.1145
aF0.0329981
aF16.006
aF0.0429951
aa(lp2
F14.3999
aF0.022847
aF14.2976
aF0.0262871
aF14.392
aF0.0163777
aF14.5275
aF0.024882
aF14.6632
aF0.0263001
aF14.8316
aF0.0084495
aF14.929
aF0.023635
aF15.084
aF0.0127464
aF15.196
aF0.0117832
aF15.39
aF-0.00641364
aF15.5068
aF0.00548671
aF15.7167
aF0.0152416
aF15.8251
aF0.0226349
aF15.939
aF0.0280262
aF16.1623
aF0.0311932
aF16.1768
aF0.0340438
aF16.1145
aF0.0329981
aF16.006
aF0.0429951
aF15.9736
aF0.0402805
aF15.9128
aF0.0335121
aa(lp3
F14.392
aF0.0163777
aF14.5275
aF0.024882
aF14.6632
aF0.0263001
aF14.8316
aF0.0084495
aF14.929
aF0.023635
aF15.084
aF0.0127464
aF15.196
aF0.0117832
aF15.39
aF-0.00641364
aF15.5068
aF0.00548671
aF15.7167
aF0.0152416
aF15.8251
aF0.0226349
aF15.939
aF0.0280262
aF16.1623
aF0.0311932
aF16.1768
aF0.0340438
aF16.1145
aF0.0329981
aF16.006
aF0.0429951
aF15.9736
aF0.0402805
aF15.9128
aF0.0335121
aF15.725
aF0.0402982
aF15.6737
aF0.0338217
aa(lp4
F14.6632
aF0.0263001
aF14.8316
aF0.0084495
aF14.929
aF0.023635
aF15.084
aF0.0127464
aF15.196
aF0.0117832
aF15.39
aF-0.00641364
aF15.5068
aF0.00548671
aF15.7167
aF0.0152416
aF15.8251
aF0.0226349
aF15.939
aF0.0280262
aF16.1623
aF0.0311932
aF16.1768
aF0.0340438
aF16.1145
aF0.0329981
aF16.006
aF0.0429951
aF15.9736
aF0.0402805
aF15.9128
aF0.0335121
aF15.725
aF0.0402982
aF15.6737
aF0.0338217
aF15.5026
aF0.0422611
aF15.3281
aF0.0337983
aa.