(lp0
(lp1
F15.9128
aF0.0335121
aF15.725
aF0.0402982
aF15.6737
aF0.0338217
aF15.5026
aF0.0422611
aF15.3281
aF0.0337983
aF15.0509
aF0.0260273
aF15.046
aF0.0319858
aF15.148
aF0.0178245
aF15.0356
aF0.0287878
aF15.1294
aF0.0235583
aF15.0888
aF0.0199203
aF15.0056
aF0.0256781
aF15.1407
aF0.0228535
aF15.3744
aF0.0165855
aF15.2639
aF0.0152553
aF15.4985
aF0.00455696
aF15.3651
aF0.0085507
aF15.419
aF0.0026677
aF15.6005
aF0.0123513
aF15.6952
aF0.00253684
aa(lp2
F15.6737
aF0.0338217
aF15.5026
aF0.0422611
aF15.3281
aF0.0337983
aF15.0509
aF0.0260273
aF15.046
aF0.0319858
aF15.148
aF0.0178245
aF15.0356
aF0.0287878
aF15.1294
aF0.0235583
aF15.0888
aF0.0199203
aF15.0056
aF0.0256781
aF15.1407
aF0.0228535
aF15.3744
aF0.0165855
aF15.2639
aF0.0152553
aF15.4985
aF0.00455696
aF15.3651
aF0.0085507
aF15.419
aF0.0026677
aF15.6005
aF0.0123513
aF15.6952
aF0.00253684
aF15.8349
aF0.00629902
aF15.7919
aF0.0104832
aa(lp3
F15.3281
aF0.0337983
aF15.0509
aF0.0260273
aF15.046
aF0.0319858
aF15.148
aF0.0178245
aF15.0356
aF0.0287878
aF15.1294
aF0.0235583
aF15.0888
aF0.0199203
aF15.0056
aF0.0256781
aF15.1407
aF0.0228535
aF15.3744
aF0.0165855
aF15.2639
aF0.0152553
aF15.4985
aF0.00455696
aF15.3651
aF0.0085507
aF15.419
aF0.0026677
aF15.6005
aF0.0123513
aF15.6952
aF0.00253684
aF15.8349
aF0.00629902
aF15.7919
aF0.0104832
aF16.0974
aF-0.000613914
aF15.9485
aF0.00937283
aa(lp4
F15.046
aF0.0319858
aF15.148
aF0.0178245
aF15.0356
aF0.0287878
aF15.1294
aF0.0235583
aF15.0888
aF0.0199203
aF15.0056
aF0.0256781
aF15.1407
aF0.0228535
aF15.3744
aF0.0165855
aF15.2639
aF0.0152553
aF15.4985
aF0.00455696
aF15.3651
aF0.0085507
aF15.419
aF0.0026677
aF15.6005
aF0.0123513
aF15.6952
aF0.00253684
aF15.8349
aF0.00629902
aF15.7919
aF0.0104832
aF16.0974
aF-0.000613914
aF15.9485
aF0.00937283
aF16.129
aF0.00546535
aF16.1536
aF0.0143006
aa(lp5
F15.0356
aF0.0287878
aF15.1294
aF0.0235583
aF15.0888
aF0.0199203
aF15.0056
aF0.0256781
aF15.1407
aF0.0228535
aF15.3744
aF0.0165855
aF15.2639
aF0.0152553
aF15.4985
aF0.00455696
aF15.3651
aF0.0085507
aF15.419
aF0.0026677
aF15.6005
aF0.0123513
aF15.6952
aF0.00253684
aF15.8349
aF0.00629902
aF15.7919
aF0.0104832
aF16.0974
aF-0.000613914
aF15.9485
aF0.00937283
aF16.129
aF0.00546535
aF16.1536
aF0.0143006
aF16.2984
aF0.0168633
aF16.5399
aF-0.00321403
aa.