(lp0
(lp1
F16.0174
aF0.00431192
aF16.2748
aF0.0137776
aF16.2605
aF0.0137863
aF16.2129
aF0.00619495
aF16.1937
aF0.00390594
aF16.1467
aF0.00285322
aF16.1019
aF0.00923233
aF16.0112
aF0.0102148
aF15.9521
aF0.014482
aF15.9056
aF0.0135512
aF15.8888
aF0.0244061
aF15.8547
aF0.0167587
aF15.8595
aF0.0234628
aF15.8739
aF0.0354878
aF15.8879
aF0.0447206
aF15.7865
aF0.0138518
aF15.8375
aF-0.00566996
aF15.9039
aF-0.00904159
aF15.9527
aF0.00305349
aF15.9784
aF0.019576
aa(lp2
F16.2605
aF0.0137863
aF16.2129
aF0.00619495
aF16.1937
aF0.00390594
aF16.1467
aF0.00285322
aF16.1019
aF0.00923233
aF16.0112
aF0.0102148
aF15.9521
aF0.014482
aF15.9056
aF0.0135512
aF15.8888
aF0.0244061
aF15.8547
aF0.0167587
aF15.8595
aF0.0234628
aF15.8739
aF0.0354878
aF15.8879
aF0.0447206
aF15.7865
aF0.0138518
aF15.8375
aF-0.00566996
aF15.9039
aF-0.00904159
aF15.9527
aF0.00305349
aF15.9784
aF0.019576
aF15.9582
aF0.0235783
aF15.9688
aF0.0282263
aa(lp3
F16.1937
aF0.00390594
aF16.1467
aF0.00285322
aF16.1019
aF0.00923233
aF16.0112
aF0.0102148
aF15.9521
aF0.014482
aF15.9056
aF0.0135512
aF15.8888
aF0.0244061
aF15.8547
aF0.0167587
aF15.8595
aF0.0234628
aF15.8739
aF0.0354878
aF15.8879
aF0.0447206
aF15.7865
aF0.0138518
aF15.8375
aF-0.00566996
aF15.9039
aF-0.00904159
aF15.9527
aF0.00305349
aF15.9784
aF0.019576
aF15.9582
aF0.0235783
aF15.9688
aF0.0282263
aF15.9611
aF0.0233324
aF15.9792
aF0.0241553
aa(lp4
F16.1019
aF0.00923233
aF16.0112
aF0.0102148
aF15.9521
aF0.014482
aF15.9056
aF0.0135512
aF15.8888
aF0.0244061
aF15.8547
aF0.0167587
aF15.8595
aF0.0234628
aF15.8739
aF0.0354878
aF15.8879
aF0.0447206
aF15.7865
aF0.0138518
aF15.8375
aF-0.00566996
aF15.9039
aF-0.00904159
aF15.9527
aF0.00305349
aF15.9784
aF0.019576
aF15.9582
aF0.0235783
aF15.9688
aF0.0282263
aF15.9611
aF0.0233324
aF15.9792
aF0.0241553
aF15.9856
aF0.0170214
aF16.0073
aF-0.00105913
aa(lp5
F15.9521
aF0.014482
aF15.9056
aF0.0135512
aF15.8888
aF0.0244061
aF15.8547
aF0.0167587
aF15.8595
aF0.0234628
aF15.8739
aF0.0354878
aF15.8879
aF0.0447206
aF15.7865
aF0.0138518
aF15.8375
aF-0.00566996
aF15.9039
aF-0.00904159
aF15.9527
aF0.00305349
aF15.9784
aF0.019576
aF15.9582
aF0.0235783
aF15.9688
aF0.0282263
aF15.9611
aF0.0233324
aF15.9792
aF0.0241553
aF15.9856
aF0.0170214
aF16.0073
aF-0.00105913
aF16.0423
aF0.0013644
aF16.0529
aF0.00695263
aa.