(lp0
(lp1
F2.30204
aF-0.0123592
aF2.30125
aF-0.000179528
aF2.48523
aF0.0240653
aF2.65245
aF0.0325689
aF2.7475
aF0.0405041
aF2.93583
aF0.0378398
aF3.03168
aF0.0420283
aF3.28081
aF0.0407686
aF3.50152
aF0.0387989
aF3.71715
aF0.036331
aF3.73621
aF0.0345205
aF3.81467
aF0.0277779
aF3.87329
aF0.0229072
aF3.95361
aF0.0170952
aF4.04071
aF0.0120482
aF4.15236
aF0.00446011
aF4.30087
aF-4.2526e-05
aF4.43009
aF-0.00124766
aF4.60983
aF-0.00186169
aF4.77786
aF-0.000886147
aa(lp2
F2.48523
aF0.0240653
aF2.65245
aF0.0325689
aF2.7475
aF0.0405041
aF2.93583
aF0.0378398
aF3.03168
aF0.0420283
aF3.28081
aF0.0407686
aF3.50152
aF0.0387989
aF3.71715
aF0.036331
aF3.73621
aF0.0345205
aF3.81467
aF0.0277779
aF3.87329
aF0.0229072
aF3.95361
aF0.0170952
aF4.04071
aF0.0120482
aF4.15236
aF0.00446011
aF4.30087
aF-4.2526e-05
aF4.43009
aF-0.00124766
aF4.60983
aF-0.00186169
aF4.77786
aF-0.000886147
aF4.92916
aF0.0150062
aF5.1078
aF0.0234797
aa(lp3
F2.7475
aF0.0405041
aF2.93583
aF0.0378398
aF3.03168
aF0.0420283
aF3.28081
aF0.0407686
aF3.50152
aF0.0387989
aF3.71715
aF0.036331
aF3.73621
aF0.0345205
aF3.81467
aF0.0277779
aF3.87329
aF0.0229072
aF3.95361
aF0.0170952
aF4.04071
aF0.0120482
aF4.15236
aF0.00446011
aF4.30087
aF-4.2526e-05
aF4.43009
aF-0.00124766
aF4.60983
aF-0.00186169
aF4.77786
aF-0.000886147
aF4.92916
aF0.0150062
aF5.1078
aF0.0234797
aF5.29348
aF0.0294716
aF5.60825
aF0.0265974
aa(lp4
F3.03168
aF0.0420283
aF3.28081
aF0.0407686
aF3.50152
aF0.0387989
aF3.71715
aF0.036331
aF3.73621
aF0.0345205
aF3.81467
aF0.0277779
aF3.87329
aF0.0229072
aF3.95361
aF0.0170952
aF4.04071
aF0.0120482
aF4.15236
aF0.00446011
aF4.30087
aF-4.2526e-05
aF4.43009
aF-0.00124766
aF4.60983
aF-0.00186169
aF4.77786
aF-0.000886147
aF4.92916
aF0.0150062
aF5.1078
aF0.0234797
aF5.29348
aF0.0294716
aF5.60825
aF0.0265974
aF5.76613
aF0.022638
aF5.98848
aF0.0169704
aa.