(lp0
(lp1
F15.7595
aF0.00804205
aF15.7236
aF0.00214033
aF15.7005
aF0.00681082
aF15.6955
aF0.0160599
aF15.6567
aF0.0118558
aF15.6712
aF0.0184849
aF15.5724
aF0.01188
aF15.5316
aF0.0151372
aF15.4548
aF0.0155646
aF15.3936
aF0.0149424
aF15.242
aF0.0163497
aF15.1154
aF0.01704
aF15.0234
aF0.0215848
aF14.9553
aF0.0206887
aF14.8377
aF0.0214842
aF14.6484
aF0.020277
aF14.5285
aF0.022558
aF14.4076
aF0.019922
aF14.2616
aF0.0191311
aF14.0006
aF0.0185948
aa(lp2
F15.7005
aF0.00681082
aF15.6955
aF0.0160599
aF15.6567
aF0.0118558
aF15.6712
aF0.0184849
aF15.5724
aF0.01188
aF15.5316
aF0.0151372
aF15.4548
aF0.0155646
aF15.3936
aF0.0149424
aF15.242
aF0.0163497
aF15.1154
aF0.01704
aF15.0234
aF0.0215848
aF14.9553
aF0.0206887
aF14.8377
aF0.0214842
aF14.6484
aF0.020277
aF14.5285
aF0.022558
aF14.4076
aF0.019922
aF14.2616
aF0.0191311
aF14.0006
aF0.0185948
aF13.7193
aF0.0188851
aF13.4255
aF0.0195331
aa(lp3
F15.6567
aF0.0118558
aF15.6712
aF0.0184849
aF15.5724
aF0.01188
aF15.5316
aF0.0151372
aF15.4548
aF0.0155646
aF15.3936
aF0.0149424
aF15.242
aF0.0163497
aF15.1154
aF0.01704
aF15.0234
aF0.0215848
aF14.9553
aF0.0206887
aF14.8377
aF0.0214842
aF14.6484
aF0.020277
aF14.5285
aF0.022558
aF14.4076
aF0.019922
aF14.2616
aF0.0191311
aF14.0006
aF0.0185948
aF13.7193
aF0.0188851
aF13.4255
aF0.0195331
aF13.1454
aF0.0180652
aF12.8846
aF0.0174532
aa.