(lp0
(lp1
F16.5565
aF0.00591629
aF16.5493
aF0.0128676
aF16.5652
aF-0.00228911
aF16.5246
aF-0.00540146
aF16.3767
aF-0.00744831
aF16.3062
aF-0.0135687
aF16.1799
aF-0.0187381
aF16.0714
aF-0.0335263
aF15.9913
aF-0.0459273
aF16.0621
aF-0.0505075
aF16.0329
aF-0.0620857
aF15.9262
aF-0.0676835
aF15.8722
aF-0.0681621
aF15.8096
aF-0.0611936
aF15.9267
aF-0.066163
aF15.9667
aF-0.0751111
aF15.9636
aF-0.0861365
aF16.0184
aF-0.0873383
aF16.0299
aF-0.0791374
aF16.0142
aF-0.0700226
aa(lp2
F16.5652
aF-0.00228911
aF16.5246
aF-0.00540146
aF16.3767
aF-0.00744831
aF16.3062
aF-0.0135687
aF16.1799
aF-0.0187381
aF16.0714
aF-0.0335263
aF15.9913
aF-0.0459273
aF16.0621
aF-0.0505075
aF16.0329
aF-0.0620857
aF15.9262
aF-0.0676835
aF15.8722
aF-0.0681621
aF15.8096
aF-0.0611936
aF15.9267
aF-0.066163
aF15.9667
aF-0.0751111
aF15.9636
aF-0.0861365
aF16.0184
aF-0.0873383
aF16.0299
aF-0.0791374
aF16.0142
aF-0.0700226
aF16.0296
aF-0.0464552
aF15.9461
aF-0.0437797
aa(lp3
F16.3767
aF-0.00744831
aF16.3062
aF-0.0135687
aF16.1799
aF-0.0187381
aF16.0714
aF-0.0335263
aF15.9913
aF-0.0459273
aF16.0621
aF-0.0505075
aF16.0329
aF-0.0620857
aF15.9262
aF-0.0676835
aF15.8722
aF-0.0681621
aF15.8096
aF-0.0611936
aF15.9267
aF-0.066163
aF15.9667
aF-0.0751111
aF15.9636
aF-0.0861365
aF16.0184
aF-0.0873383
aF16.0299
aF-0.0791374
aF16.0142
aF-0.0700226
aF16.0296
aF-0.0464552
aF15.9461
aF-0.0437797
aF16.0234
aF-0.0180387
aF16.0341
aF-0.0107184
aa(lp4
F16.1799
aF-0.0187381
aF16.0714
aF-0.0335263
aF15.9913
aF-0.0459273
aF16.0621
aF-0.0505075
aF16.0329
aF-0.0620857
aF15.9262
aF-0.0676835
aF15.8722
aF-0.0681621
aF15.8096
aF-0.0611936
aF15.9267
aF-0.066163
aF15.9667
aF-0.0751111
aF15.9636
aF-0.0861365
aF16.0184
aF-0.0873383
aF16.0299
aF-0.0791374
aF16.0142
aF-0.0700226
aF16.0296
aF-0.0464552
aF15.9461
aF-0.0437797
aF16.0234
aF-0.0180387
aF16.0341
aF-0.0107184
aF16.0174
aF0.00431192
aF16.2748
aF0.0137776
aa.