(lp0
(lp1
F14.5278
aF-0.0390398
aF14.6956
aF-0.00679304
aF14.7103
aF0.0198319
aF14.767
aF0.0540378
aF14.7688
aF0.0855603
aF14.7428
aF0.109449
aF14.7047
aF0.111982
aF14.6261
aF0.075608
aF14.4409
aF0.0113736
aF14.3756
aF-0.029381
aF14.2877
aF-0.0563198
aF14.2339
aF-0.067848
aF14.1449
aF-0.0658554
aF14.025
aF-0.0589122
aF14.0019
aF-0.0443924
aF13.9584
aF-0.0180416
aF13.9527
aF0.0128903
aF13.901
aF0.0365357
aF13.805
aF0.055332
aF13.6658
aF0.0701331
aa(lp2
F14.7103
aF0.0198319
aF14.767
aF0.0540378
aF14.7688
aF0.0855603
aF14.7428
aF0.109449
aF14.7047
aF0.111982
aF14.6261
aF0.075608
aF14.4409
aF0.0113736
aF14.3756
aF-0.029381
aF14.2877
aF-0.0563198
aF14.2339
aF-0.067848
aF14.1449
aF-0.0658554
aF14.025
aF-0.0589122
aF14.0019
aF-0.0443924
aF13.9584
aF-0.0180416
aF13.9527
aF0.0128903
aF13.901
aF0.0365357
aF13.805
aF0.055332
aF13.6658
aF0.0701331
aF13.5414
aF0.0743131
aF13.4156
aF0.0677911
aa(lp3
F14.7688
aF0.0855603
aF14.7428
aF0.109449
aF14.7047
aF0.111982
aF14.6261
aF0.075608
aF14.4409
aF0.0113736
aF14.3756
aF-0.029381
aF14.2877
aF-0.0563198
aF14.2339
aF-0.067848
aF14.1449
aF-0.0658554
aF14.025
aF-0.0589122
aF14.0019
aF-0.0443924
aF13.9584
aF-0.0180416
aF13.9527
aF0.0128903
aF13.901
aF0.0365357
aF13.805
aF0.055332
aF13.6658
aF0.0701331
aF13.5414
aF0.0743131
aF13.4156
aF0.0677911
aF13.1884
aF0.053586
aF12.8327
aF0.0350551
aa(lp4
F14.7047
aF0.111982
aF14.6261
aF0.075608
aF14.4409
aF0.0113736
aF14.3756
aF-0.029381
aF14.2877
aF-0.0563198
aF14.2339
aF-0.067848
aF14.1449
aF-0.0658554
aF14.025
aF-0.0589122
aF14.0019
aF-0.0443924
aF13.9584
aF-0.0180416
aF13.9527
aF0.0128903
aF13.901
aF0.0365357
aF13.805
aF0.055332
aF13.6658
aF0.0701331
aF13.5414
aF0.0743131
aF13.4156
aF0.0677911
aF13.1884
aF0.053586
aF12.8327
aF0.0350551
aF12.3775
aF0.0231162
aF11.9477
aF0.0177952
aa.