(lp0
(lp1
F15.283
aF-0.0305707
aF15.2406
aF-0.0449628
aF15.1922
aF-0.0596492
aF15.064
aF-0.0711058
aF14.9294
aF-0.0760686
aF14.7856
aF-0.0803773
aF14.6845
aF-0.113231
aF14.5077
aF-0.164479
aF14.3546
aF-0.174782
aF14.1869
aF-0.057265
aF14.1669
aF0.0485473
aF14.1571
aF0.0122133
aF14.2523
aF-0.0975395
aF14.2136
aF-0.127755
aF14.1519
aF-0.0480729
aF14.0947
aF0.0418523
aF13.9885
aF0.0967659
aF13.9799
aF0.117382
aF13.9125
aF0.081685
aF13.933
aF0.0258819
aa(lp2
F15.1922
aF-0.0596492
aF15.064
aF-0.0711058
aF14.9294
aF-0.0760686
aF14.7856
aF-0.0803773
aF14.6845
aF-0.113231
aF14.5077
aF-0.164479
aF14.3546
aF-0.174782
aF14.1869
aF-0.057265
aF14.1669
aF0.0485473
aF14.1571
aF0.0122133
aF14.2523
aF-0.0975395
aF14.2136
aF-0.127755
aF14.1519
aF-0.0480729
aF14.0947
aF0.0418523
aF13.9885
aF0.0967659
aF13.9799
aF0.117382
aF13.9125
aF0.081685
aF13.933
aF0.0258819
aF13.8734
aF0.00210531
aF13.8372
aF-0.00442088
aa(lp3
F14.9294
aF-0.0760686
aF14.7856
aF-0.0803773
aF14.6845
aF-0.113231
aF14.5077
aF-0.164479
aF14.3546
aF-0.174782
aF14.1869
aF-0.057265
aF14.1669
aF0.0485473
aF14.1571
aF0.0122133
aF14.2523
aF-0.0975395
aF14.2136
aF-0.127755
aF14.1519
aF-0.0480729
aF14.0947
aF0.0418523
aF13.9885
aF0.0967659
aF13.9799
aF0.117382
aF13.9125
aF0.081685
aF13.933
aF0.0258819
aF13.8734
aF0.00210531
aF13.8372
aF-0.00442088
aF13.7706
aF-0.00684292
aF13.7373
aF-0.00649144
aa(lp4
F14.6845
aF-0.113231
aF14.5077
aF-0.164479
aF14.3546
aF-0.174782
aF14.1869
aF-0.057265
aF14.1669
aF0.0485473
aF14.1571
aF0.0122133
aF14.2523
aF-0.0975395
aF14.2136
aF-0.127755
aF14.1519
aF-0.0480729
aF14.0947
aF0.0418523
aF13.9885
aF0.0967659
aF13.9799
aF0.117382
aF13.9125
aF0.081685
aF13.933
aF0.0258819
aF13.8734
aF0.00210531
aF13.8372
aF-0.00442088
aF13.7706
aF-0.00684292
aF13.7373
aF-0.00649144
aF13.6538
aF-0.00562071
aF13.4486
aF0.00585105
aa.