(lp0
(lp1
F7.8341
aF0.00550094
aF8.17654
aF0.00540209
aF8.47847
aF0.00870026
aF8.82788
aF0.0103943
aF9.1813
aF0.0120726
aF9.48721
aF0.0116446
aF9.82644
aF0.012889
aF10.1556
aF0.0121165
aF10.4837
aF0.00261336
aF10.8439
aF-0.0320562
aF11.4393
aF-0.0648153
aF11.6637
aF-0.0720241
aF11.7774
aF-0.0337141
aF11.8351
aF0.0265905
aF11.8869
aF0.0801325
aF12.0029
aF0.122984
aF12.1283
aF0.133556
aF12.3086
aF0.107266
aF12.5083
aF0.0598917
aF12.6775
aF0.0123908
aa(lp2
F8.47847
aF0.00870026
aF8.82788
aF0.0103943
aF9.1813
aF0.0120726
aF9.48721
aF0.0116446
aF9.82644
aF0.012889
aF10.1556
aF0.0121165
aF10.4837
aF0.00261336
aF10.8439
aF-0.0320562
aF11.4393
aF-0.0648153
aF11.6637
aF-0.0720241
aF11.7774
aF-0.0337141
aF11.8351
aF0.0265905
aF11.8869
aF0.0801325
aF12.0029
aF0.122984
aF12.1283
aF0.133556
aF12.3086
aF0.107266
aF12.5083
aF0.0598917
aF12.6775
aF0.0123908
aF12.8673
aF-0.0171799
aF13.0245
aF-0.0190526
aa(lp3
F9.1813
aF0.0120726
aF9.48721
aF0.0116446
aF9.82644
aF0.012889
aF10.1556
aF0.0121165
aF10.4837
aF0.00261336
aF10.8439
aF-0.0320562
aF11.4393
aF-0.0648153
aF11.6637
aF-0.0720241
aF11.7774
aF-0.0337141
aF11.8351
aF0.0265905
aF11.8869
aF0.0801325
aF12.0029
aF0.122984
aF12.1283
aF0.133556
aF12.3086
aF0.107266
aF12.5083
aF0.0598917
aF12.6775
aF0.0123908
aF12.8673
aF-0.0171799
aF13.0245
aF-0.0190526
aF13.2132
aF0.0117118
aF13.2955
aF0.061062
aa(lp4
F9.82644
aF0.012889
aF10.1556
aF0.0121165
aF10.4837
aF0.00261336
aF10.8439
aF-0.0320562
aF11.4393
aF-0.0648153
aF11.6637
aF-0.0720241
aF11.7774
aF-0.0337141
aF11.8351
aF0.0265905
aF11.8869
aF0.0801325
aF12.0029
aF0.122984
aF12.1283
aF0.133556
aF12.3086
aF0.107266
aF12.5083
aF0.0598917
aF12.6775
aF0.0123908
aF12.8673
aF-0.0171799
aF13.0245
aF-0.0190526
aF13.2132
aF0.0117118
aF13.2955
aF0.061062
aF13.3388
aF0.109491
aF13.3079
aF0.137043
aa.