(lp0
(lp1
F13.2917
aF-0.0282225
aF13.3842
aF-0.02354
aF13.4907
aF-0.0191748
aF13.5306
aF-0.00682701
aF13.6282
aF0.00463942
aF13.777
aF0.00385469
aF14.0133
aF0.0176526
aF14.1834
aF-0.0136302
aF14.3803
aF-0.0430587
aF14.6458
aF-0.0699607
aF14.8038
aF-0.0762064
aF15.1076
aF-0.0529501
aF15.2764
aF0.0130394
aF15.3379
aF0.0673809
aF15.3979
aF0.116154
aF15.3084
aF0.121057
aF15.2522
aF0.081874
aF15.2308
aF0.0322775
aF15.2297
aF-0.00191562
aF15.2911
aF-0.00806468
aa(lp2
F13.4907
aF-0.0191748
aF13.5306
aF-0.00682701
aF13.6282
aF0.00463942
aF13.777
aF0.00385469
aF14.0133
aF0.0176526
aF14.1834
aF-0.0136302
aF14.3803
aF-0.0430587
aF14.6458
aF-0.0699607
aF14.8038
aF-0.0762064
aF15.1076
aF-0.0529501
aF15.2764
aF0.0130394
aF15.3379
aF0.0673809
aF15.3979
aF0.116154
aF15.3084
aF0.121057
aF15.2522
aF0.081874
aF15.2308
aF0.0322775
aF15.2297
aF-0.00191562
aF15.2911
aF-0.00806468
aF15.3329
aF-0.00557257
aF15.6648
aF-0.00939453
aa(lp3
F13.6282
aF0.00463942
aF13.777
aF0.00385469
aF14.0133
aF0.0176526
aF14.1834
aF-0.0136302
aF14.3803
aF-0.0430587
aF14.6458
aF-0.0699607
aF14.8038
aF-0.0762064
aF15.1076
aF-0.0529501
aF15.2764
aF0.0130394
aF15.3379
aF0.0673809
aF15.3979
aF0.116154
aF15.3084
aF0.121057
aF15.2522
aF0.081874
aF15.2308
aF0.0322775
aF15.2297
aF-0.00191562
aF15.2911
aF-0.00806468
aF15.3329
aF-0.00557257
aF15.6648
aF-0.00939453
aF15.5057
aF-0.00775245
aF15.3231
aF0.00217519
aa(lp4
F14.0133
aF0.0176526
aF14.1834
aF-0.0136302
aF14.3803
aF-0.0430587
aF14.6458
aF-0.0699607
aF14.8038
aF-0.0762064
aF15.1076
aF-0.0529501
aF15.2764
aF0.0130394
aF15.3379
aF0.0673809
aF15.3979
aF0.116154
aF15.3084
aF0.121057
aF15.2522
aF0.081874
aF15.2308
aF0.0322775
aF15.2297
aF-0.00191562
aF15.2911
aF-0.00806468
aF15.3329
aF-0.00557257
aF15.6648
aF-0.00939453
aF15.5057
aF-0.00775245
aF15.3231
aF0.00217519
aF15.135
aF0.00382408
aF14.9446
aF0.00308998
aa.