(lp0
(lp1
F12.0029
aF0.122984
aF12.1283
aF0.133556
aF12.3086
aF0.107266
aF12.5083
aF0.0598917
aF12.6775
aF0.0123908
aF12.8673
aF-0.0171799
aF13.0245
aF-0.0190526
aF13.2132
aF0.0117118
aF13.2955
aF0.061062
aF13.3388
aF0.109491
aF13.3079
aF0.137043
aF13.2528
aF0.141568
aF13.1645
aF0.144076
aF13.0101
aF0.150905
aF12.8929
aF0.148281
aF12.8468
aF0.112719
aF12.7757
aF0.0925486
aF12.8717
aF0.0836869
aF12.9065
aF0.0602146
aF13.0351
aF0.0608368
aa(lp2
F12.3086
aF0.107266
aF12.5083
aF0.0598917
aF12.6775
aF0.0123908
aF12.8673
aF-0.0171799
aF13.0245
aF-0.0190526
aF13.2132
aF0.0117118
aF13.2955
aF0.061062
aF13.3388
aF0.109491
aF13.3079
aF0.137043
aF13.2528
aF0.141568
aF13.1645
aF0.144076
aF13.0101
aF0.150905
aF12.8929
aF0.148281
aF12.8468
aF0.112719
aF12.7757
aF0.0925486
aF12.8717
aF0.0836869
aF12.9065
aF0.0602146
aF13.0351
aF0.0608368
aF13.0311
aF0.0857114
aF13.0636
aF0.0912996
aa(lp3
F12.6775
aF0.0123908
aF12.8673
aF-0.0171799
aF13.0245
aF-0.0190526
aF13.2132
aF0.0117118
aF13.2955
aF0.061062
aF13.3388
aF0.109491
aF13.3079
aF0.137043
aF13.2528
aF0.141568
aF13.1645
aF0.144076
aF13.0101
aF0.150905
aF12.8929
aF0.148281
aF12.8468
aF0.112719
aF12.7757
aF0.0925486
aF12.8717
aF0.0836869
aF12.9065
aF0.0602146
aF13.0351
aF0.0608368
aF13.0311
aF0.0857114
aF13.0636
aF0.0912996
aF13.1081
aF0.0932654
aF13.0558
aF0.0863206
aa.