(lp0
(lp1
F12.8468
aF0.112719
aF12.7757
aF0.0925486
aF12.8717
aF0.0836869
aF12.9065
aF0.0602146
aF13.0351
aF0.0608368
aF13.0311
aF0.0857114
aF13.0636
aF0.0912996
aF13.1081
aF0.0932654
aF13.0558
aF0.0863206
aF12.7747
aF0.087983
aF12.6658
aF0.100779
aF12.5598
aF0.12974
aF12.4025
aF0.163497
aF12.1034
aF0.184563
aF11.9412
aF0.192468
aF11.752
aF0.200409
aF11.6381
aF0.170675
aF11.6
aF0.128698
aF11.7618
aF0.104167
aF11.9394
aF0.0923333
aa(lp2
F12.8717
aF0.0836869
aF12.9065
aF0.0602146
aF13.0351
aF0.0608368
aF13.0311
aF0.0857114
aF13.0636
aF0.0912996
aF13.1081
aF0.0932654
aF13.0558
aF0.0863206
aF12.7747
aF0.087983
aF12.6658
aF0.100779
aF12.5598
aF0.12974
aF12.4025
aF0.163497
aF12.1034
aF0.184563
aF11.9412
aF0.192468
aF11.752
aF0.200409
aF11.6381
aF0.170675
aF11.6
aF0.128698
aF11.7618
aF0.104167
aF11.9394
aF0.0923333
aF12.0858
aF0.069752
aF12.296
aF0.0338506
aa(lp3
F13.0351
aF0.0608368
aF13.0311
aF0.0857114
aF13.0636
aF0.0912996
aF13.1081
aF0.0932654
aF13.0558
aF0.0863206
aF12.7747
aF0.087983
aF12.6658
aF0.100779
aF12.5598
aF0.12974
aF12.4025
aF0.163497
aF12.1034
aF0.184563
aF11.9412
aF0.192468
aF11.752
aF0.200409
aF11.6381
aF0.170675
aF11.6
aF0.128698
aF11.7618
aF0.104167
aF11.9394
aF0.0923333
aF12.0858
aF0.069752
aF12.296
aF0.0338506
aF12.4564
aF-0.00345509
aF12.7077
aF-0.0140667
aa(lp4
F13.0636
aF0.0912996
aF13.1081
aF0.0932654
aF13.0558
aF0.0863206
aF12.7747
aF0.087983
aF12.6658
aF0.100779
aF12.5598
aF0.12974
aF12.4025
aF0.163497
aF12.1034
aF0.184563
aF11.9412
aF0.192468
aF11.752
aF0.200409
aF11.6381
aF0.170675
aF11.6
aF0.128698
aF11.7618
aF0.104167
aF11.9394
aF0.0923333
aF12.0858
aF0.069752
aF12.296
aF0.0338506
aF12.4564
aF-0.00345509
aF12.7077
aF-0.0140667
aF12.9512
aF-0.0285607
aF13.2004
aF-0.0321102
aa.