(lp0
(lp1
F15.5057
aF-0.00775245
aF15.3231
aF0.00217519
aF15.135
aF0.00382408
aF14.9446
aF0.00308998
aF14.8239
aF0.00212644
aF14.6915
aF-0.000855169
aF14.6569
aF-0.0241216
aF14.5995
aF-0.0461198
aF14.5958
aF-0.0766562
aF14.5561
aF-0.0900814
aF14.5273
aF-0.097656
aF14.5343
aF-0.114627
aF14.3987
aF-0.117843
aF14.4371
aF-0.124581
aF14.4637
aF-0.131958
aF14.4592
aF-0.136411
aF14.4476
aF-0.139059
aF14.4036
aF-0.134407
aF14.4623
aF-0.111233
aF14.5232
aF-0.0862683
aa(lp2
F15.135
aF0.00382408
aF14.9446
aF0.00308998
aF14.8239
aF0.00212644
aF14.6915
aF-0.000855169
aF14.6569
aF-0.0241216
aF14.5995
aF-0.0461198
aF14.5958
aF-0.0766562
aF14.5561
aF-0.0900814
aF14.5273
aF-0.097656
aF14.5343
aF-0.114627
aF14.3987
aF-0.117843
aF14.4371
aF-0.124581
aF14.4637
aF-0.131958
aF14.4592
aF-0.136411
aF14.4476
aF-0.139059
aF14.4036
aF-0.134407
aF14.4623
aF-0.111233
aF14.5232
aF-0.0862683
aF14.6685
aF-0.0630698
aF14.5278
aF-0.0390398
aa(lp3
F14.8239
aF0.00212644
aF14.6915
aF-0.000855169
aF14.6569
aF-0.0241216
aF14.5995
aF-0.0461198
aF14.5958
aF-0.0766562
aF14.5561
aF-0.0900814
aF14.5273
aF-0.097656
aF14.5343
aF-0.114627
aF14.3987
aF-0.117843
aF14.4371
aF-0.124581
aF14.4637
aF-0.131958
aF14.4592
aF-0.136411
aF14.4476
aF-0.139059
aF14.4036
aF-0.134407
aF14.4623
aF-0.111233
aF14.5232
aF-0.0862683
aF14.6685
aF-0.0630698
aF14.5278
aF-0.0390398
aF14.6956
aF-0.00679304
aF14.7103
aF0.0198319
aa(lp4
F14.6569
aF-0.0241216
aF14.5995
aF-0.0461198
aF14.5958
aF-0.0766562
aF14.5561
aF-0.0900814
aF14.5273
aF-0.097656
aF14.5343
aF-0.114627
aF14.3987
aF-0.117843
aF14.4371
aF-0.124581
aF14.4637
aF-0.131958
aF14.4592
aF-0.136411
aF14.4476
aF-0.139059
aF14.4036
aF-0.134407
aF14.4623
aF-0.111233
aF14.5232
aF-0.0862683
aF14.6685
aF-0.0630698
aF14.5278
aF-0.0390398
aF14.6956
aF-0.00679304
aF14.7103
aF0.0198319
aF14.767
aF0.0540378
aF14.7688
aF0.0855603
aa.