(lp0
(lp1
F12.8668
aF-0.0387666
aF12.7286
aF-0.038404
aF12.6642
aF-0.0320721
aF12.6201
aF-0.0322557
aF12.6313
aF-0.0375706
aF12.6174
aF-0.0651451
aF12.5344
aF-0.0914121
aF12.4075
aF-0.107843
aF12.2862
aF-0.119441
aF12.1572
aF-0.140679
aF12.1324
aF-0.161471
aF12.0863
aF-0.171651
aF12.0501
aF-0.184652
aF11.9945
aF-0.183189
aF11.9311
aF-0.161571
aF11.9033
aF-0.139424
aF11.9588
aF-0.111526
aF12.0438
aF-0.0971681
aF12.0958
aF-0.0776362
aF12.1906
aF-0.0544161
aa(lp2
F12.6642
aF-0.0320721
aF12.6201
aF-0.0322557
aF12.6313
aF-0.0375706
aF12.6174
aF-0.0651451
aF12.5344
aF-0.0914121
aF12.4075
aF-0.107843
aF12.2862
aF-0.119441
aF12.1572
aF-0.140679
aF12.1324
aF-0.161471
aF12.0863
aF-0.171651
aF12.0501
aF-0.184652
aF11.9945
aF-0.183189
aF11.9311
aF-0.161571
aF11.9033
aF-0.139424
aF11.9588
aF-0.111526
aF12.0438
aF-0.0971681
aF12.0958
aF-0.0776362
aF12.1906
aF-0.0544161
aF12.2828
aF-0.0392704
aF12.444
aF-0.0187151
aa(lp3
F12.6313
aF-0.0375706
aF12.6174
aF-0.0651451
aF12.5344
aF-0.0914121
aF12.4075
aF-0.107843
aF12.2862
aF-0.119441
aF12.1572
aF-0.140679
aF12.1324
aF-0.161471
aF12.0863
aF-0.171651
aF12.0501
aF-0.184652
aF11.9945
aF-0.183189
aF11.9311
aF-0.161571
aF11.9033
aF-0.139424
aF11.9588
aF-0.111526
aF12.0438
aF-0.0971681
aF12.0958
aF-0.0776362
aF12.1906
aF-0.0544161
aF12.2828
aF-0.0392704
aF12.444
aF-0.0187151
aF12.6286
aF-0.00351939
aF12.7153
aF0.00755778
aa(lp4
F12.5344
aF-0.0914121
aF12.4075
aF-0.107843
aF12.2862
aF-0.119441
aF12.1572
aF-0.140679
aF12.1324
aF-0.161471
aF12.0863
aF-0.171651
aF12.0501
aF-0.184652
aF11.9945
aF-0.183189
aF11.9311
aF-0.161571
aF11.9033
aF-0.139424
aF11.9588
aF-0.111526
aF12.0438
aF-0.0971681
aF12.0958
aF-0.0776362
aF12.1906
aF-0.0544161
aF12.2828
aF-0.0392704
aF12.444
aF-0.0187151
aF12.6286
aF-0.00351939
aF12.7153
aF0.00755778
aF12.8761
aF0.00556167
aF13.0863
aF0.00679108
aa.