(lp0
(lp1
F19.4915
aF0.0102424
aF19.3932
aF0.00397359
aF19.2919
aF0.0111342
aF19.1473
aF0.0200099
aF18.9572
aF0.0186173
aF18.6847
aF0.0160283
aF18.2025
aF0.00102077
aF17.612
aF0.00894494
aF17.0299
aF0.0044472
aF16.3573
aF0.00651874
aF15.7072
aF0.00927737
aF14.8957
aF0.0165356
aF13.9953
aF0.0162665
aF13.0954
aF0.0100567
aF12.2366
aF0.00958863
aF11.5566
aF0.0114153
aF10.7761
aF0.0130287
aF10.0742
aF0.0119862
aF9.34575
aF0.0106527
aF8.51555
aF0.0113481
aa(lp2
F19.2919
aF0.0111342
aF19.1473
aF0.0200099
aF18.9572
aF0.0186173
aF18.6847
aF0.0160283
aF18.2025
aF0.00102077
aF17.612
aF0.00894494
aF17.0299
aF0.0044472
aF16.3573
aF0.00651874
aF15.7072
aF0.00927737
aF14.8957
aF0.0165356
aF13.9953
aF0.0162665
aF13.0954
aF0.0100567
aF12.2366
aF0.00958863
aF11.5566
aF0.0114153
aF10.7761
aF0.0130287
aF10.0742
aF0.0119862
aF9.34575
aF0.0106527
aF8.51555
aF0.0113481
aF7.62313
aF0.0111061
aF6.70989
aF0.0123346
aa.