(lp0
(lp1
F17.612
aF0.00894494
aF17.0299
aF0.0044472
aF16.3573
aF0.00651874
aF15.7072
aF0.00927737
aF14.8957
aF0.0165356
aF13.9953
aF0.0162665
aF13.0954
aF0.0100567
aF12.2366
aF0.00958863
aF11.5566
aF0.0114153
aF10.7761
aF0.0130287
aF10.0742
aF0.0119862
aF9.34575
aF0.0106527
aF8.51555
aF0.0113481
aF7.62313
aF0.0111061
aF6.70989
aF0.0123346
aF5.83135
aF0.00996104
aF5.06653
aF0.0103177
aF4.45216
aF0.0107141
aF3.96852
aF0.012123
aF3.41593
aF0.011553
aa(lp2
F16.3573
aF0.00651874
aF15.7072
aF0.00927737
aF14.8957
aF0.0165356
aF13.9953
aF0.0162665
aF13.0954
aF0.0100567
aF12.2366
aF0.00958863
aF11.5566
aF0.0114153
aF10.7761
aF0.0130287
aF10.0742
aF0.0119862
aF9.34575
aF0.0106527
aF8.51555
aF0.0113481
aF7.62313
aF0.0111061
aF6.70989
aF0.0123346
aF5.83135
aF0.00996104
aF5.06653
aF0.0103177
aF4.45216
aF0.0107141
aF3.96852
aF0.012123
aF3.41593
aF0.011553
aF2.85004
aF0.0120129
aF2.26699
aF0.0109146
aa(lp3
F14.8957
aF0.0165356
aF13.9953
aF0.0162665
aF13.0954
aF0.0100567
aF12.2366
aF0.00958863
aF11.5566
aF0.0114153
aF10.7761
aF0.0130287
aF10.0742
aF0.0119862
aF9.34575
aF0.0106527
aF8.51555
aF0.0113481
aF7.62313
aF0.0111061
aF6.70989
aF0.0123346
aF5.83135
aF0.00996104
aF5.06653
aF0.0103177
aF4.45216
aF0.0107141
aF3.96852
aF0.012123
aF3.41593
aF0.011553
aF2.85004
aF0.0120129
aF2.26699
aF0.0109146
aF1.69658
aF0.0113855
aF1.16728
aF0.0112465
aa.