(lp0
(lp1
F18.6206
aF-0.0500105
aF18.6414
aF-0.0417286
aF18.6706
aF-0.0339726
aF18.6739
aF-0.0142602
aF18.7336
aF0.00314489
aF18.7833
aF0.0475195
aF18.7869
aF0.056498
aF18.8769
aF0.061148
aF18.9297
aF0.0071908
aF18.841
aF-0.0301858
aF18.8082
aF-0.0610864
aF18.7606
aF-0.046861
aF18.6909
aF-0.0208586
aF18.6387
aF0.0148863
aF18.6178
aF0.042664
aF18.6972
aF0.043383
aF18.7279
aF0.039833
aF18.7649
aF-0.0133365
aF18.8151
aF-0.0424913
aF18.7982
aF-0.0598163
aa(lp2
F18.6706
aF-0.0339726
aF18.6739
aF-0.0142602
aF18.7336
aF0.00314489
aF18.7833
aF0.0475195
aF18.7869
aF0.056498
aF18.8769
aF0.061148
aF18.9297
aF0.0071908
aF18.841
aF-0.0301858
aF18.8082
aF-0.0610864
aF18.7606
aF-0.046861
aF18.6909
aF-0.0208586
aF18.6387
aF0.0148863
aF18.6178
aF0.042664
aF18.6972
aF0.043383
aF18.7279
aF0.039833
aF18.7649
aF-0.0133365
aF18.8151
aF-0.0424913
aF18.7982
aF-0.0598163
aF18.8019
aF-0.0626911
aF18.7569
aF-0.0657217
aa.