(lp0
(lp1
F18.8082
aF-0.0610864
aF18.7606
aF-0.046861
aF18.6909
aF-0.0208586
aF18.6387
aF0.0148863
aF18.6178
aF0.042664
aF18.6972
aF0.043383
aF18.7279
aF0.039833
aF18.7649
aF-0.0133365
aF18.8151
aF-0.0424913
aF18.7982
aF-0.0598163
aF18.8019
aF-0.0626911
aF18.7569
aF-0.0657217
aF18.74
aF-0.0463932
aF18.8304
aF-0.0230654
aF18.9054
aF0.0426956
aF19.0051
aF0.0553783
aF19.3976
aF0.0574991
aF19.4005
aF0.0515571
aF19.4559
aF0.0270481
aF19.4489
aF0.0102035
aa(lp2
F18.6909
aF-0.0208586
aF18.6387
aF0.0148863
aF18.6178
aF0.042664
aF18.6972
aF0.043383
aF18.7279
aF0.039833
aF18.7649
aF-0.0133365
aF18.8151
aF-0.0424913
aF18.7982
aF-0.0598163
aF18.8019
aF-0.0626911
aF18.7569
aF-0.0657217
aF18.74
aF-0.0463932
aF18.8304
aF-0.0230654
aF18.9054
aF0.0426956
aF19.0051
aF0.0553783
aF19.3976
aF0.0574991
aF19.4005
aF0.0515571
aF19.4559
aF0.0270481
aF19.4489
aF0.0102035
aF19.433
aF-0.0154496
aF19.5008
aF-0.0256518
aa.