(lp0
(lp1
F11.3902
aF0.0176103
aF11.3979
aF0.0420496
aF11.4637
aF0.0692442
aF11.537
aF0.0727672
aF11.6577
aF0.0858084
aF11.7842
aF0.0645423
aF11.9114
aF0.0403857
aF12.0764
aF0.0315831
aF12.2128
aF0.0398866
aF12.3412
aF0.0519868
aF12.4721
aF0.0752089
aF12.6789
aF0.0899618
aF12.8612
aF0.114049
aF12.9432
aF0.11903
aF13.0964
aF0.126679
aF13.2319
aF0.135325
aF13.3906
aF0.152093
aF13.5988
aF0.13649
aF13.6963
aF0.11273
aF13.8833
aF0.108048
aa(lp2
F11.4637
aF0.0692442
aF11.537
aF0.0727672
aF11.6577
aF0.0858084
aF11.7842
aF0.0645423
aF11.9114
aF0.0403857
aF12.0764
aF0.0315831
aF12.2128
aF0.0398866
aF12.3412
aF0.0519868
aF12.4721
aF0.0752089
aF12.6789
aF0.0899618
aF12.8612
aF0.114049
aF12.9432
aF0.11903
aF13.0964
aF0.126679
aF13.2319
aF0.135325
aF13.3906
aF0.152093
aF13.5988
aF0.13649
aF13.6963
aF0.11273
aF13.8833
aF0.108048
aF14.1226
aF0.0708751
aF14.1883
aF0.0522458
aa(lp3
F11.6577
aF0.0858084
aF11.7842
aF0.0645423
aF11.9114
aF0.0403857
aF12.0764
aF0.0315831
aF12.2128
aF0.0398866
aF12.3412
aF0.0519868
aF12.4721
aF0.0752089
aF12.6789
aF0.0899618
aF12.8612
aF0.114049
aF12.9432
aF0.11903
aF13.0964
aF0.126679
aF13.2319
aF0.135325
aF13.3906
aF0.152093
aF13.5988
aF0.13649
aF13.6963
aF0.11273
aF13.8833
aF0.108048
aF14.1226
aF0.0708751
aF14.1883
aF0.0522458
aF14.1379
aF0.0479822
aF14.1104
aF0.0321288
aa(lp4
F11.9114
aF0.0403857
aF12.0764
aF0.0315831
aF12.2128
aF0.0398866
aF12.3412
aF0.0519868
aF12.4721
aF0.0752089
aF12.6789
aF0.0899618
aF12.8612
aF0.114049
aF12.9432
aF0.11903
aF13.0964
aF0.126679
aF13.2319
aF0.135325
aF13.3906
aF0.152093
aF13.5988
aF0.13649
aF13.6963
aF0.11273
aF13.8833
aF0.108048
aF14.1226
aF0.0708751
aF14.1883
aF0.0522458
aF14.1379
aF0.0479822
aF14.1104
aF0.0321288
aF13.965
aF0.033263
aF14.028
aF0.0161439
aa.