(lp0
(lp1
F0.26913
aF-0.0172651
aF0.252251
aF-0.0173898
aF0.579004
aF-0.0177023
aF0.548219
aF-0.0171474
aF0.518297
aF-0.0169746
aF0.490435
aF-0.0173617
aF0.469412
aF-0.0175029
aF0.445876
aF-0.0173809
aF0.426974
aF-0.0171053
aF0.412373
aF-0.0170516
aF0.40653
aF-0.0172065
aF0.41742
aF-0.0169564
aF0.44254
aF-0.0170365
aF0.474685
aF-0.0168602
aF0.555301
aF-0.0167146
aF0.683951
aF-0.0152788
aF0.841829
aF-0.0162589
aF1.02152
aF-0.0157173
aF1.52596
aF-0.00855056
aF1.72934
aF0.0200391
aa(lp2
F0.579004
aF-0.0177023
aF0.548219
aF-0.0171474
aF0.518297
aF-0.0169746
aF0.490435
aF-0.0173617
aF0.469412
aF-0.0175029
aF0.445876
aF-0.0173809
aF0.426974
aF-0.0171053
aF0.412373
aF-0.0170516
aF0.40653
aF-0.0172065
aF0.41742
aF-0.0169564
aF0.44254
aF-0.0170365
aF0.474685
aF-0.0168602
aF0.555301
aF-0.0167146
aF0.683951
aF-0.0152788
aF0.841829
aF-0.0162589
aF1.02152
aF-0.0157173
aF1.52596
aF-0.00855056
aF1.72934
aF0.0200391
aF1.88158
aF0.076561
aF2.08421
aF0.155785
aa.