(lp0
(lp1
F1.55574
aF0.144628
aF1.36325
aF0.249531
aF1.32197
aF0.267902
aF1.22813
aF0.216407
aF1.28873
aF0.134268
aF1.24169
aF0.0529505
aF1.15849
aF-0.0173813
aF0.953552
aF-0.0221605
aF0.7402
aF-0.021413
aF0.543371
aF-0.0222781
aF0.404457
aF-0.0237023
aF0.301917
aF-0.0185616
aF0.48866
aF-0.0195163
aF0.794565
aF-0.0176398
aF0.946863
aF-0.0152171
aF0.765456
aF-0.017742
aF0.69358
aF-0.0172477
aF0.620333
aF-0.0172286
aF0.553419
aF-0.0176148
aF0.556743
aF-0.0174527
aa(lp2
F1.32197
aF0.267902
aF1.22813
aF0.216407
aF1.28873
aF0.134268
aF1.24169
aF0.0529505
aF1.15849
aF-0.0173813
aF0.953552
aF-0.0221605
aF0.7402
aF-0.021413
aF0.543371
aF-0.0222781
aF0.404457
aF-0.0237023
aF0.301917
aF-0.0185616
aF0.48866
aF-0.0195163
aF0.794565
aF-0.0176398
aF0.946863
aF-0.0152171
aF0.765456
aF-0.017742
aF0.69358
aF-0.0172477
aF0.620333
aF-0.0172286
aF0.553419
aF-0.0176148
aF0.556743
aF-0.0174527
aF0.602307
aF-0.0169392
aF0.675038
aF-0.0170414
aa.