(lp0
(lp1
F3.55939
aF-0.0109606
aF3.36807
aF-0.00157709
aF3.20946
aF0.0106082
aF3.03461
aF0.0125467
aF2.81178
aF0.0124773
aF2.61191
aF0.0121678
aF2.39846
aF0.0118001
aF2.21396
aF0.0119694
aF2.0429
aF0.011948
aF1.89291
aF0.0117687
aF1.76837
aF0.011796
aF1.67054
aF0.012054
aF1.59457
aF0.0118711
aF1.53495
aF0.0118095
aF1.29096
aF0.0121515
aF1.15826
aF0.012157
aF1.02667
aF0.0121137
aF0.967434
aF0.0119137
aF0.830956
aF0.0122481
aF0.651522
aF0.012102
aa(lp2
F3.20946
aF0.0106082
aF3.03461
aF0.0125467
aF2.81178
aF0.0124773
aF2.61191
aF0.0121678
aF2.39846
aF0.0118001
aF2.21396
aF0.0119694
aF2.0429
aF0.011948
aF1.89291
aF0.0117687
aF1.76837
aF0.011796
aF1.67054
aF0.012054
aF1.59457
aF0.0118711
aF1.53495
aF0.0118095
aF1.29096
aF0.0121515
aF1.15826
aF0.012157
aF1.02667
aF0.0121137
aF0.967434
aF0.0119137
aF0.830956
aF0.0122481
aF0.651522
aF0.012102
aF0.485077
aF0.0121025
aF0.332218
aF0.0122308
aa.