(lp0
(lp1
F1.87468
aF0.0323966
aF2.52353
aF0.0382753
aF2.92994
aF0.0500867
aF2.86249
aF0.0544771
aF2.95709
aF0.0528616
aF3.0555
aF0.0511551
aF3.18586
aF0.0529882
aF3.43921
aF0.0456402
aF3.8297
aF0.0294749
aF4.18073
aF0.0189841
aF4.62169
aF0.0144404
aF5.06326
aF0.0135408
aF5.51642
aF0.0157352
aF6.2788
aF0.00992969
aF6.66327
aF0.00902441
aF7.09215
aF0.00814609
aF7.32007
aF0.00821165
aF7.39268
aF0.00929991
aF7.51047
aF0.00914087
aF7.60788
aF0.00630985
aa(lp2
F2.92994
aF0.0500867
aF2.86249
aF0.0544771
aF2.95709
aF0.0528616
aF3.0555
aF0.0511551
aF3.18586
aF0.0529882
aF3.43921
aF0.0456402
aF3.8297
aF0.0294749
aF4.18073
aF0.0189841
aF4.62169
aF0.0144404
aF5.06326
aF0.0135408
aF5.51642
aF0.0157352
aF6.2788
aF0.00992969
aF6.66327
aF0.00902441
aF7.09215
aF0.00814609
aF7.32007
aF0.00821165
aF7.39268
aF0.00929991
aF7.51047
aF0.00914087
aF7.60788
aF0.00630985
aF7.8341
aF0.00550094
aF8.17654
aF0.00540209
aa(lp3
F2.95709
aF0.0528616
aF3.0555
aF0.0511551
aF3.18586
aF0.0529882
aF3.43921
aF0.0456402
aF3.8297
aF0.0294749
aF4.18073
aF0.0189841
aF4.62169
aF0.0144404
aF5.06326
aF0.0135408
aF5.51642
aF0.0157352
aF6.2788
aF0.00992969
aF6.66327
aF0.00902441
aF7.09215
aF0.00814609
aF7.32007
aF0.00821165
aF7.39268
aF0.00929991
aF7.51047
aF0.00914087
aF7.60788
aF0.00630985
aF7.8341
aF0.00550094
aF8.17654
aF0.00540209
aF8.47847
aF0.00870026
aF8.82788
aF0.0103943
aa(lp4
F3.18586
aF0.0529882
aF3.43921
aF0.0456402
aF3.8297
aF0.0294749
aF4.18073
aF0.0189841
aF4.62169
aF0.0144404
aF5.06326
aF0.0135408
aF5.51642
aF0.0157352
aF6.2788
aF0.00992969
aF6.66327
aF0.00902441
aF7.09215
aF0.00814609
aF7.32007
aF0.00821165
aF7.39268
aF0.00929991
aF7.51047
aF0.00914087
aF7.60788
aF0.00630985
aF7.8341
aF0.00550094
aF8.17654
aF0.00540209
aF8.47847
aF0.00870026
aF8.82788
aF0.0103943
aF9.1813
aF0.0120726
aF9.48721
aF0.0116446
aa(lp5
F3.8297
aF0.0294749
aF4.18073
aF0.0189841
aF4.62169
aF0.0144404
aF5.06326
aF0.0135408
aF5.51642
aF0.0157352
aF6.2788
aF0.00992969
aF6.66327
aF0.00902441
aF7.09215
aF0.00814609
aF7.32007
aF0.00821165
aF7.39268
aF0.00929991
aF7.51047
aF0.00914087
aF7.60788
aF0.00630985
aF7.8341
aF0.00550094
aF8.17654
aF0.00540209
aF8.47847
aF0.00870026
aF8.82788
aF0.0103943
aF9.1813
aF0.0120726
aF9.48721
aF0.0116446
aF9.82644
aF0.012889
aF10.1556
aF0.0121165
aa(lp6
F4.62169
aF0.0144404
aF5.06326
aF0.0135408
aF5.51642
aF0.0157352
aF6.2788
aF0.00992969
aF6.66327
aF0.00902441
aF7.09215
aF0.00814609
aF7.32007
aF0.00821165
aF7.39268
aF0.00929991
aF7.51047
aF0.00914087
aF7.60788
aF0.00630985
aF7.8341
aF0.00550094
aF8.17654
aF0.00540209
aF8.47847
aF0.00870026
aF8.82788
aF0.0103943
aF9.1813
aF0.0120726
aF9.48721
aF0.0116446
aF9.82644
aF0.012889
aF10.1556
aF0.0121165
aF10.4837
aF0.00261336
aF10.8439
aF-0.0320562
aa.