(lp0
(lp1
F13.4156
aF0.0677911
aF13.1884
aF0.053586
aF12.8327
aF0.0350551
aF12.3775
aF0.0231162
aF11.9477
aF0.0177952
aF11.5594
aF0.00689141
aF11.1939
aF0.000158514
aF11.0212
aF-0.00939623
aF10.7416
aF-0.0119877
aF10.4342
aF-0.0140001
aF10.096
aF-0.0198992
aF9.80412
aF-0.023038
aF9.59929
aF-0.0199935
aF9.39403
aF-0.00788669
aF9.21225
aF0.00252379
aF9.0317
aF0.00318798
aF8.83264
aF0.000588313
aF8.59062
aF-0.00853851
aF8.307
aF-0.0187331
aF8.24384
aF-0.0375826
aa(lp2
F12.8327
aF0.0350551
aF12.3775
aF0.0231162
aF11.9477
aF0.0177952
aF11.5594
aF0.00689141
aF11.1939
aF0.000158514
aF11.0212
aF-0.00939623
aF10.7416
aF-0.0119877
aF10.4342
aF-0.0140001
aF10.096
aF-0.0198992
aF9.80412
aF-0.023038
aF9.59929
aF-0.0199935
aF9.39403
aF-0.00788669
aF9.21225
aF0.00252379
aF9.0317
aF0.00318798
aF8.83264
aF0.000588313
aF8.59062
aF-0.00853851
aF8.307
aF-0.0187331
aF8.24384
aF-0.0375826
aF8.08554
aF-0.0416049
aF8.09452
aF-0.0363518
aa(lp3
F11.9477
aF0.0177952
aF11.5594
aF0.00689141
aF11.1939
aF0.000158514
aF11.0212
aF-0.00939623
aF10.7416
aF-0.0119877
aF10.4342
aF-0.0140001
aF10.096
aF-0.0198992
aF9.80412
aF-0.023038
aF9.59929
aF-0.0199935
aF9.39403
aF-0.00788669
aF9.21225
aF0.00252379
aF9.0317
aF0.00318798
aF8.83264
aF0.000588313
aF8.59062
aF-0.00853851
aF8.307
aF-0.0187331
aF8.24384
aF-0.0375826
aF8.08554
aF-0.0416049
aF8.09452
aF-0.0363518
aF8.11822
aF-0.0334484
aF8.1703
aF-0.0105719
aa(lp4
F11.1939
aF0.000158514
aF11.0212
aF-0.00939623
aF10.7416
aF-0.0119877
aF10.4342
aF-0.0140001
aF10.096
aF-0.0198992
aF9.80412
aF-0.023038
aF9.59929
aF-0.0199935
aF9.39403
aF-0.00788669
aF9.21225
aF0.00252379
aF9.0317
aF0.00318798
aF8.83264
aF0.000588313
aF8.59062
aF-0.00853851
aF8.307
aF-0.0187331
aF8.24384
aF-0.0375826
aF8.08554
aF-0.0416049
aF8.09452
aF-0.0363518
aF8.11822
aF-0.0334484
aF8.1703
aF-0.0105719
aF8.24328
aF0.012994
aF8.43181
aF0.0216789
aa(lp5
F10.7416
aF-0.0119877
aF10.4342
aF-0.0140001
aF10.096
aF-0.0198992
aF9.80412
aF-0.023038
aF9.59929
aF-0.0199935
aF9.39403
aF-0.00788669
aF9.21225
aF0.00252379
aF9.0317
aF0.00318798
aF8.83264
aF0.000588313
aF8.59062
aF-0.00853851
aF8.307
aF-0.0187331
aF8.24384
aF-0.0375826
aF8.08554
aF-0.0416049
aF8.09452
aF-0.0363518
aF8.11822
aF-0.0334484
aF8.1703
aF-0.0105719
aF8.24328
aF0.012994
aF8.43181
aF0.0216789
aF8.59238
aF0.0322094
aF8.49125
aF0.0385082
aa.