(lp0
(lp1
F10.6981
aF0.082427
aF10.5044
aF0.0882882
aF10.2633
aF0.0887345
aF9.87861
aF0.0809011
aF9.50001
aF0.0770009
aF9.18983
aF0.0718844
aF8.67995
aF0.0561177
aF8.40964
aF0.0231676
aF7.86926
aF0.0113353
aF7.57151
aF-0.00425868
aF7.2346
aF0.0155495
aF6.90715
aF0.0306388
aF6.46912
aF0.0188318
aF6.19058
aF-0.0129701
aF5.75212
aF-0.0366612
aF5.41117
aF-0.057486
aF5.09512
aF-0.0652079
aF4.74436
aF-0.0558347
aF4.50197
aF-0.0601957
aF4.27597
aF-0.0437879
aa(lp2
F10.2633
aF0.0887345
aF9.87861
aF0.0809011
aF9.50001
aF0.0770009
aF9.18983
aF0.0718844
aF8.67995
aF0.0561177
aF8.40964
aF0.0231676
aF7.86926
aF0.0113353
aF7.57151
aF-0.00425868
aF7.2346
aF0.0155495
aF6.90715
aF0.0306388
aF6.46912
aF0.0188318
aF6.19058
aF-0.0129701
aF5.75212
aF-0.0366612
aF5.41117
aF-0.057486
aF5.09512
aF-0.0652079
aF4.74436
aF-0.0558347
aF4.50197
aF-0.0601957
aF4.27597
aF-0.0437879
aF3.94846
aF-0.0352968
aF3.71731
aF-0.0307499
aa(lp3
F9.50001
aF0.0770009
aF9.18983
aF0.0718844
aF8.67995
aF0.0561177
aF8.40964
aF0.0231676
aF7.86926
aF0.0113353
aF7.57151
aF-0.00425868
aF7.2346
aF0.0155495
aF6.90715
aF0.0306388
aF6.46912
aF0.0188318
aF6.19058
aF-0.0129701
aF5.75212
aF-0.0366612
aF5.41117
aF-0.057486
aF5.09512
aF-0.0652079
aF4.74436
aF-0.0558347
aF4.50197
aF-0.0601957
aF4.27597
aF-0.0437879
aF3.94846
aF-0.0352968
aF3.71731
aF-0.0307499
aF3.55939
aF-0.0109606
aF3.36807
aF-0.00157709
aa(lp4
F8.67995
aF0.0561177
aF8.40964
aF0.0231676
aF7.86926
aF0.0113353
aF7.57151
aF-0.00425868
aF7.2346
aF0.0155495
aF6.90715
aF0.0306388
aF6.46912
aF0.0188318
aF6.19058
aF-0.0129701
aF5.75212
aF-0.0366612
aF5.41117
aF-0.057486
aF5.09512
aF-0.0652079
aF4.74436
aF-0.0558347
aF4.50197
aF-0.0601957
aF4.27597
aF-0.0437879
aF3.94846
aF-0.0352968
aF3.71731
aF-0.0307499
aF3.55939
aF-0.0109606
aF3.36807
aF-0.00157709
aF3.20946
aF0.0106082
aF3.03461
aF0.0125467
aa(lp5
F7.86926
aF0.0113353
aF7.57151
aF-0.00425868
aF7.2346
aF0.0155495
aF6.90715
aF0.0306388
aF6.46912
aF0.0188318
aF6.19058
aF-0.0129701
aF5.75212
aF-0.0366612
aF5.41117
aF-0.057486
aF5.09512
aF-0.0652079
aF4.74436
aF-0.0558347
aF4.50197
aF-0.0601957
aF4.27597
aF-0.0437879
aF3.94846
aF-0.0352968
aF3.71731
aF-0.0307499
aF3.55939
aF-0.0109606
aF3.36807
aF-0.00157709
aF3.20946
aF0.0106082
aF3.03461
aF0.0125467
aF2.81178
aF0.0124773
aF2.61191
aF0.0121678
aa.