(lp0
(lp1
F1.06682
aF0.0118181
aF1.14064
aF0.0121145
aF1.15354
aF0.0119762
aF1.14326
aF0.0121263
aF1.11161
aF0.0115114
aF1.06038
aF0.0106832
aF0.948544
aF0.00578273
aF0.794868
aF-0.000677273
aF0.583142
aF-0.0115729
aF0.381536
aF-0.0257355
aF0.251189
aF-0.0405619
aF0.288259
aF-0.0499694
aF0.402009
aF-0.0526178
aF0.782009
aF-0.0503875
aF1.25228
aF-0.0359055
aF1.20308
aF-0.0137679
aF1.33238
aF0.0129187
aF1.87468
aF0.0323966
aF2.52353
aF0.0382753
aF2.92994
aF0.0500867
aa(lp2
F1.15354
aF0.0119762
aF1.14326
aF0.0121263
aF1.11161
aF0.0115114
aF1.06038
aF0.0106832
aF0.948544
aF0.00578273
aF0.794868
aF-0.000677273
aF0.583142
aF-0.0115729
aF0.381536
aF-0.0257355
aF0.251189
aF-0.0405619
aF0.288259
aF-0.0499694
aF0.402009
aF-0.0526178
aF0.782009
aF-0.0503875
aF1.25228
aF-0.0359055
aF1.20308
aF-0.0137679
aF1.33238
aF0.0129187
aF1.87468
aF0.0323966
aF2.52353
aF0.0382753
aF2.92994
aF0.0500867
aF2.86249
aF0.0544771
aF2.95709
aF0.0528616
aa.