(lp0
(lp1
F0.0
aF0.0
aF0.399951
aF0.0119672
aF0.346978
aF0.0119358
aF0.303729
aF0.0115944
aF0.282375
aF0.0118179
aF0.243121
aF0.0115895
aF0.176106
aF0.0104271
aF0.204766
aF0.00925266
aF0.317119
aF0.00736356
aF0.494468
aF0.00144174
aF0.693858
aF-0.00788726
aF0.911871
aF-0.0181507
aF1.20333
aF-0.0289061
aF1.51629
aF-0.0315808
aF1.83741
aF-0.0219546
aF2.48995
aF-0.00610878
aF2.86528
aF0.0155946
aF3.2582
aF0.0246107
aF3.73376
aF0.0270531
aF4.17127
aF0.0234113
aa(lp2
F0.346978
aF0.0119358
aF0.303729
aF0.0115944
aF0.282375
aF0.0118179
aF0.243121
aF0.0115895
aF0.176106
aF0.0104271
aF0.204766
aF0.00925266
aF0.317119
aF0.00736356
aF0.494468
aF0.00144174
aF0.693858
aF-0.00788726
aF0.911871
aF-0.0181507
aF1.20333
aF-0.0289061
aF1.51629
aF-0.0315808
aF1.83741
aF-0.0219546
aF2.48995
aF-0.00610878
aF2.86528
aF0.0155946
aF3.2582
aF0.0246107
aF3.73376
aF0.0270531
aF4.17127
aF0.0234113
aF4.27461
aF0.0151438
aF4.3198
aF0.00911133
aa(lp3
F0.282375
aF0.0118179
aF0.243121
aF0.0115895
aF0.176106
aF0.0104271
aF0.204766
aF0.00925266
aF0.317119
aF0.00736356
aF0.494468
aF0.00144174
aF0.693858
aF-0.00788726
aF0.911871
aF-0.0181507
aF1.20333
aF-0.0289061
aF1.51629
aF-0.0315808
aF1.83741
aF-0.0219546
aF2.48995
aF-0.00610878
aF2.86528
aF0.0155946
aF3.2582
aF0.0246107
aF3.73376
aF0.0270531
aF4.17127
aF0.0234113
aF4.27461
aF0.0151438
aF4.3198
aF0.00911133
aF4.35062
aF0.00502698
aF4.37246
aF0.00482817
aa.